///////////////////////////////////////////////////////////////////////////////
//                                                                            /
// IAR C/C++ Compiler V6.12.1.50500 for Atmel AVR       02/Aug/2014  01:50:54 /
// Copyright 1996-2012 IAR Systems AB.                                        /
//                                                                            /
//    Source file  =  D:\Projects\BatteryCounter\_micro\BattRX\GlobalCounter. /
//                    cpp                                                     /
//    Command line =  D:\Projects\BatteryCounter\_micro\BattRX\GlobalCounter. /
//                    cpp --cpu=m328p -ms -o "D:\Projects\BatteryCounter\_mic /
//                    ro\BattRX\Release - Atmega328P\Obj\" -D NDEBUG -lA      /
//                    "D:\Projects\BatteryCounter\_micro\BattRX\Release -     /
//                    Atmega328P\List\" --initializers_in_flash               /
//                    -DENABLE_BIT_DEFINITIONS --do_cross_call -e             /
//                    --eeprom_size 1024 --dlib --dlib_config "C:\Program     /
//                    Files (x86)\IAR Systems\Embedded Workbench              /
//                    6.0\avr\LIB\DLIB\dlAVR-3s-ec_mul-sf-n.h" --eec++ -Ohs   /
//    List file    =  D:\Projects\BatteryCounter\_micro\BattRX\Release -      /
//                    Atmega328P\List\GlobalCounter.s90                       /
//                                                                            /
//                                                                            /
///////////////////////////////////////////////////////////////////////////////

        NAME GlobalCounter

        RTMODEL "__64bit_doubles", "disabled"
        RTMODEL "__SystemLibrary", "DLib"
        RTMODEL "__cpu", "3"
        RTMODEL "__cpu_name", "ATmega328P"
        RTMODEL "__dlib_file_descriptor", "0"
        RTMODEL "__enhanced_core", "enabled"
        RTMODEL "__has_elpm", "false"
        RTMODEL "__memory_model", "2"
        RTMODEL "__rt_version", "3"

        RSEG CSTACK:DATA:NOROOT(0)
        RSEG RSTACK:DATA:NOROOT(0)

        ERROR
//NOTE: This module defines or uses C++ features that are not
//      accessible from assembler code. Assembling this file will
//      not produce an equivalent object file to the one produced
//      by the C++ compiler.

        EXTERN ?ML_SRAM_SRAM_16_L07
        EXTERN ?Register_R10_is_cg_reg
        EXTERN ?Register_R11_is_cg_reg
        EXTERN ?Register_R12_is_cg_reg
        EXTERN ?Register_R13_is_cg_reg
        EXTERN ?Register_R14_is_cg_reg
        EXTERN ?Register_R15_is_cg_reg
        EXTERN ?Register_R4_is_cg_reg
        EXTERN ?Register_R5_is_cg_reg
        EXTERN ?Register_R6_is_cg_reg
        EXTERN ?Register_R7_is_cg_reg
        EXTERN ?Register_R8_is_cg_reg
        EXTERN ?Register_R9_is_cg_reg
        EXTERN ?SS_DIVMOD_L02
        EXTERN ?UL_DIVMOD_L03
        EXTERN ?US_DIVMOD_L02
        EXTERN ?need_segment_init

        PUBWEAK `?<Segment init: NEAR_Z>`
        PUBLIC ??addCounter
        FUNCTION ??addCounter,021203H
        ARGFRAME CSTACK, 0, STACK
        LOCFRAME CSTACK, 9, STACK
        LOCFRAME RSTACK, 2, STACK
        PUBLIC ??addCounterDay
        FUNCTION ??addCounterDay,0203H
        ARGFRAME RSTACK, 0, STACK
        LOCFRAME RSTACK, 2, STACK
        PUBLIC ??addCounterHour
        FUNCTION ??addCounterHour,0203H
        ARGFRAME RSTACK, 0, STACK
        LOCFRAME RSTACK, 2, STACK
        PUBLIC ??addCounterMonth
        FUNCTION ??addCounterMonth,0203H
        ARGFRAME RSTACK, 0, STACK
        LOCFRAME CSTACK, 1, STACK
        LOCFRAME RSTACK, 2, STACK
        PUBLIC ??counterOperationStatus
        PUBLIC ??counterStatus
        PUBLIC ??counterSubStatusSet
        PUBLIC ??curPeriod
        PUBLIC ??curStatisticRecord
        PUBLIC ??enableMemory
        FUNCTION ??enableMemory,021203H
        ARGFRAME CSTACK, 0, STACK
        LOCFRAME RSTACK, 2, STACK
        PUBLIC ??finishOperation
        FUNCTION ??finishOperation,021203H
        ARGFRAME CSTACK, 0, STACK
        LOCFRAME RSTACK, 2, STACK
        PUBLIC ??getCurPeriodsNum
        FUNCTION ??getCurPeriodsNum,021203H
        ARGFRAME RSTACK, 0, STACK
        LOCFRAME CSTACK, 12, STACK
        LOCFRAME RSTACK, 4, STACK
        PUBLIC ??getPeriodNumDay
        FUNCTION ??getPeriodNumDay,0203H
        ARGFRAME RSTACK, 0, STACK
        LOCFRAME CSTACK, 12, STACK
        LOCFRAME RSTACK, 4, STACK
        PUBLIC ??getPeriodNumDay_1
        FUNCTION ??getPeriodNumDay_1,021203H
        ARGFRAME CSTACK, 0, STACK
        LOCFRAME RSTACK, 2, STACK
        PUBLIC ??getPeriodNumHour
        FUNCTION ??getPeriodNumHour,021203H
        ARGFRAME CSTACK, 0, STACK
        LOCFRAME CSTACK, 4, STACK
        LOCFRAME RSTACK, 2, STACK
        PUBLIC ??getPeriodNumHour_1
        FUNCTION ??getPeriodNumHour_1,021203H
        ARGFRAME CSTACK, 0, STACK
        LOCFRAME CSTACK, 4, STACK
        LOCFRAME RSTACK, 2, STACK
        PUBLIC ??getPeriodNumMonth
        FUNCTION ??getPeriodNumMonth,0203H
        ARGFRAME CSTACK, 0, STACK
        LOCFRAME RSTACK, 2, STACK
        PUBLIC ??getPeriodNumMonth_1
        FUNCTION ??getPeriodNumMonth_1,0203H
        ARGFRAME CSTACK, 0, STACK
        LOCFRAME RSTACK, 2, STACK
        PUBLIC ??getRTCDateTimeDay
        FUNCTION ??getRTCDateTimeDay,0203H
        ARGFRAME RSTACK, 0, STACK
        LOCFRAME CSTACK, 22, STACK
        LOCFRAME RSTACK, 4, STACK
        PUBLIC ??getRTCDateTimeHour
        FUNCTION ??getRTCDateTimeHour,021203H
        ARGFRAME CSTACK, 0, STACK
        LOCFRAME CSTACK, 6, STACK
        LOCFRAME RSTACK, 4, STACK
        PUBLIC ??getRTCDateTimeMonth
        FUNCTION ??getRTCDateTimeMonth,0203H
        ARGFRAME CSTACK, 0, STACK
        LOCFRAME CSTACK, 4, STACK
        LOCFRAME RSTACK, 4, STACK
        PUBLIC ??init
        FUNCTION ??init,021203H
        ARGFRAME CSTACK, 0, STACK
        LOCFRAME CSTACK, 3, STACK
        LOCFRAME RSTACK, 2, STACK
        PUBLIC ??isUpdateCounter
        FUNCTION ??isUpdateCounter,0203H
        ARGFRAME CSTACK, 0, STACK
        LOCFRAME RSTACK, 2, STACK
        PUBLIC ??operationLoadSave
        FUNCTION ??operationLoadSave,021203H
        ARGFRAME RSTACK, 0, STACK
        LOCFRAME CSTACK, 4, STACK
        LOCFRAME RSTACK, 4, STACK
        PUBLIC ??operationStatistic
        FUNCTION ??operationStatistic,021203H
        ARGFRAME RSTACK, 0, STACK
        LOCFRAME CSTACK, 4, STACK
        LOCFRAME RSTACK, 2, STACK
        PUBLIC ??prevPeriod
        PUBLIC ??ready
        FUNCTION ??ready,0203H
        ARGFRAME CSTACK, 0, STACK
        LOCFRAME RSTACK, 2, STACK
        PUBLIC ??resetData
        FUNCTION ??resetData,021203H
        ARGFRAME CSTACK, 0, STACK
        LOCFRAME CSTACK, 1, STACK
        LOCFRAME RSTACK, 2, STACK
        PUBLIC ??retryOperation
        FUNCTION ??retryOperation,021203H
        ARGFRAME RSTACK, 0, STACK
        LOCFRAME RSTACK, 2, STACK
        PUBLIC ??run
        FUNCTION ??run,021203H
        ARGFRAME CSTACK, 0, STACK
        LOCFRAME RSTACK, 2, STACK
        PUBLIC ??saveCounter
        FUNCTION ??saveCounter,021203H
        ARGFRAME RSTACK, 0, STACK
        LOCFRAME CSTACK, 13, STACK
        LOCFRAME RSTACK, 4, STACK
        PUBLIC ??scheduleCounterOperation
        FUNCTION ??scheduleCounterOperation,0203H
        ARGFRAME CSTACK, 0, STACK
        LOCFRAME RSTACK, 2, STACK
        PUBLIC ??scheduleStatisticOperation
        FUNCTION ??scheduleStatisticOperation,0203H
        ARGFRAME CSTACK, 0, STACK
        LOCFRAME RSTACK, 2, STACK
        PUBLIC ??setTotals
        FUNCTION ??setTotals,0203H
        ARGFRAME CSTACK, 0, STACK
        LOCFRAME RSTACK, 2, STACK
        PUBLIC ??setUpdateCounter
        FUNCTION ??setUpdateCounter,0203H
        ARGFRAME RSTACK, 0, STACK
        LOCFRAME RSTACK, 2, STACK
        PUBLIC ??startOperation
        FUNCTION ??startOperation,021203H
        ARGFRAME CSTACK, 0, STACK
        LOCFRAME RSTACK, 2, STACK
        PUBLIC ??totalInCnt
        PUBLIC ??totalOutCnt
        PUBLIC ??tryNum
        PUBLIC ??updateCounter
        PUBWEAK __?EEARH
        PUBWEAK __?EEARL
        PUBWEAK __?EECR
        PUBWEAK __?EEDR
        
          CFI Names cfiNames0
          CFI StackFrame CFA_Y Y DATA
          CFI StackFrame CFA_SP SP DATA
          CFI VirtualResource ?RetPad:1, ?RetHigh:8, ?RetLow:8, ?Ret:17
          CFI Resource R0:8, R1:8, R2:8, R3:8, R4:8, R5:8, R6:8, R7:8, R8:8, R9:8
          CFI Resource R10:8, R11:8, R12:8, R13:8, R14:8, R15:8, R16:8, R17:8
          CFI Resource R18:8, R19:8, R20:8, R21:8, R22:8, R23:8, R24:8, R25:8
          CFI Resource R26:8, R27:8, R28:8, R29:8, R30:8, R31:8
          CFI Resource ?RetHighByteMask:8, SP:16, SPH:8, SPL:8, Y:16
          CFI ResourceParts ?Ret ?RetHigh, ?RetLow, ?RetPad
          CFI ResourceParts SP SPH, SPL
          CFI ResourceParts Y R29, R28
          CFI EndNames cfiNames0
        
          CFI Common cfiCommon0 Using cfiNames0
          CFI CodeAlign 1
          CFI DataAlign 1
          CFI ReturnAddress ?Ret CODE
          CFI CFA_Y Y+0
          CFI CFA_SP SP+2
          CFI ?RetPad 0
          CFI ?RetHigh and(load(1, DATA, sub(CFA_SP, 1)), ?RetHighByteMask)
          CFI ?RetLow Frame(CFA_SP, 0)
          CFI ?Ret Concat
          CFI R0 Undefined
          CFI R1 Undefined
          CFI R2 Undefined
          CFI R3 Undefined
          CFI R4 SameValue
          CFI R5 SameValue
          CFI R6 SameValue
          CFI R7 SameValue
          CFI R8 SameValue
          CFI R9 SameValue
          CFI R10 SameValue
          CFI R11 SameValue
          CFI R12 SameValue
          CFI R13 SameValue
          CFI R14 SameValue
          CFI R15 SameValue
          CFI R16 Undefined
          CFI R17 Undefined
          CFI R18 Undefined
          CFI R19 Undefined
          CFI R20 Undefined
          CFI R21 Undefined
          CFI R22 Undefined
          CFI R23 Undefined
          CFI R24 SameValue
          CFI R25 SameValue
          CFI R26 SameValue
          CFI R27 SameValue
          CFI R28 Undefined
          CFI R29 Undefined
          CFI R30 Undefined
          CFI R31 Undefined
          CFI ?RetHighByteMask SameValue
          CFI SPH Undefined
          CFI SPL Undefined
          CFI EndCommon cfiCommon0
        
        
          CFI Common cfiCommon1 Using cfiNames0
          CFI CodeAlign 1
          CFI DataAlign 1
          CFI ReturnAddress ?Ret CODE
          CFI CFA_Y Notused
          CFI CFA_SP SP+2
          CFI ?RetPad 0
          CFI ?RetHigh and(load(1, DATA, sub(CFA_SP, 1)), ?RetHighByteMask)
          CFI ?RetLow Frame(CFA_SP, 0)
          CFI ?Ret Concat
          CFI R0 SameValue
          CFI R1 SameValue
          CFI R2 SameValue
          CFI R3 SameValue
          CFI R4 SameValue
          CFI R5 SameValue
          CFI R6 SameValue
          CFI R7 SameValue
          CFI R8 SameValue
          CFI R9 SameValue
          CFI R10 SameValue
          CFI R11 SameValue
          CFI R12 SameValue
          CFI R13 SameValue
          CFI R14 SameValue
          CFI R15 SameValue
          CFI R16 SameValue
          CFI R17 SameValue
          CFI R18 SameValue
          CFI R19 SameValue
          CFI R20 SameValue
          CFI R21 SameValue
          CFI R22 SameValue
          CFI R23 SameValue
          CFI R24 SameValue
          CFI R25 SameValue
          CFI R26 SameValue
          CFI R27 SameValue
          CFI R28 Undefined
          CFI R29 Undefined
          CFI R30 SameValue
          CFI R31 SameValue
          CFI ?RetHighByteMask SameValue
          CFI SPH Undefined
          CFI SPL Undefined
          CFI Y SameValue
          CFI EndCommon cfiCommon1
        
`?<Name GLOBAL 0>`  SYMBOL "GLOBAL"
`?<Name RTC 1>`     SYMBOL "RTC", `?<Name GLOBAL 0>`
??RTCDateTime       SYMBOL "RTCDateTime", `?<Name RTC 1>`
`?<Name MemAT25Driver 3>` SYMBOL "MemAT25Driver"
??counterValue      SYMBOL "counterValue", `?<Name MemAT25Driver 3>`
??operationResult   SYMBOL "operationResult", `?<Name MemAT25Driver 3>`
`?<Name Counter 27>` SYMBOL "Counter", `?<Name GLOBAL 0>`
??counterOperationStatus SYMBOL "counterOperationStatus", `?<Name Counter 27>`
??counterStatus     SYMBOL "counterStatus", `?<Name Counter 27>`
??counterSubStatusSet SYMBOL "counterSubStatusSet", `?<Name Counter 27>`
??curPeriod         SYMBOL "curPeriod", `?<Name Counter 27>`
??curStatisticRecord SYMBOL "curStatisticRecord", `?<Name Counter 27>`
??prevPeriod        SYMBOL "prevPeriod", `?<Name Counter 27>`
??totalInCnt        SYMBOL "totalInCnt", `?<Name Counter 27>`
??totalOutCnt       SYMBOL "totalOutCnt", `?<Name Counter 27>`
??tryNum            SYMBOL "tryNum", `?<Name Counter 27>`
??updateCounter     SYMBOL "updateCounter", `?<Name Counter 27>`

        EXTERN ??RTCDateTime
        EXTERN ??counterValue
        EXTERN ??disable
        FUNCTION ??disable,0202H
        ARGFRAME RSTACK, 0, STACK
        EXTERN ??enable
        FUNCTION ??enable,0202H
        ARGFRAME RSTACK, 0, STACK
        EXTERN ??enabled
        FUNCTION ??enabled,0202H
        ARGFRAME RSTACK, 0, STACK
        EXTERN ??operationResult
        EXTERN ??ready_1
        FUNCTION ??ready_1,0202H
        ARGFRAME RSTACK, 0, STACK
        EXTERN ??saveTotalsInOut
        FUNCTION ??saveTotalsInOut,0202H
        ARGFRAME RSTACK, 0, STACK
        EXTERN ??startMemOperation
        FUNCTION ??startMemOperation,0202H
        ARGFRAME RSTACK, 0, STACK
        EXTERN memset
        FUNCTION memset,010202H
        ARGFRAME RSTACK, 0, STACK

// D:\Projects\BatteryCounter\_micro\BattRX\GlobalCounter.cpp
//    1 #ifndef __GLOBALCOUNTER_CPP_
//    2 #define __GLOBALCOUNTER_CPP_
//    3 
//    4 #include "GlobalCounter.h"
//    5 #include "GlobalSpace.h"
//    6 #include "MemAT25Driver.h"
//    7 #include "DeviceManager.h"
//    8 
//    9 #define COUNTER_MAX_RW_TRY_NUM          (3)
//   10 
//   11 namespace GLOBAL
//   12 {
//   13   namespace Counter
//   14   {
//   15     typedef enum
//   16     {
//   17       CounterStatus_Normal = 0,
//   18       CounterStatus_Load = 1,
//   19       CounterStatus_Save = 2,
//   20       CounterStatus_GetStatistic = 3,
//   21     } TCounterStatus;
//   22 
//   23     typedef enum
//   24     {
//   25       CounterOperationStatus_Scheduling = 0,
//   26       CounterOperationStatus_Waiting = 1,
//   27     } TCounterOperationStatus;
//   28 

        RSEG NEAR_Z:DATA:NOROOT(0)
        REQUIRE `?<Segment init: NEAR_Z>`
//   29     TCounterPeriodData curPeriod;
??curPeriod:
        DS8 32
//   30     unsigned long totalInCnt;
??totalInCnt:
        DS8 4
//   31     unsigned long totalOutCnt;
??totalOutCnt:
        DS8 4
//   32 
//   33     TCounterPeriodData prevPeriod;
//   34     unsigned char updateCounter = CounterStatisticType_None;
//   35 
//   36     TCounterStatus counterStatus = CounterStatus_Normal;
//   37     unsigned char counterSubStatusSet = CounterStatisticType_None;
//   38     TCounterOperationStatus counterOperationStatus = CounterOperationStatus_Scheduling;
//   39     unsigned char tryNum = 0;
//   40 
//   41     TCounterStatisticRecord* curStatisticRecord;
??curStatisticRecord:
        DS8 2
??updateCounter:
        DS8 1
??counterStatus:
        DS8 1
??counterSubStatusSet:
        DS8 1
??counterOperationStatus:
        DS8 1
??tryNum:
        DS8 1

        RSEG NEAR_Z:DATA:NOROOT(0)
        REQUIRE `?<Segment init: NEAR_Z>`
??prevPeriod:
        DS8 32
//   42 

        RSEG CODE:CODE:NOROOT(1)
//   43     unsigned short getPeriodNumMonth(unsigned short _year, unsigned char _month)
??getPeriodNumMonth:
          CFI Block cfiBlock0 Using cfiCommon0
          CFI Function ??getPeriodNumMonth
//   44     {
        MOV     R19, R25
        MOV     R22, R24
//   45       return ((_year - 2000) * 12) + (_month - 1);
        SUBI    R16, 208
        SBCI    R17, 7
        LDI     R20, 12
        MUL     R20, R17
        MOV     R21, R0
        MUL     R20, R16
        MOV     R20, R0
        ADD     R21, R1
        MOV     R24, R18
        LDI     R25, 0
        SBIW    R25:R24, 1
        ADD     R20, R24
        ADC     R21, R25
        MOVW    R17:R16, R21:R20
        MOV     R24, R22
        MOV     R25, R19
        RET
          CFI EndBlock cfiBlock0
//   46     }
//   47 

        RSEG CODE:CODE:NOROOT(1)
//   48     unsigned long getPeriodNumDay(unsigned short _year, unsigned char _month, unsigned char _day)
??getPeriodNumDay:
          CFI Block cfiBlock1 Using cfiCommon0
          CFI Function ??getPeriodNumDay
//   49     {
        RCALL   ?Subroutine0
          CFI R24 Frame(CFA_Y, -12)
          CFI R25 Frame(CFA_Y, -11)
          CFI R26 Frame(CFA_Y, -10)
          CFI R27 Frame(CFA_Y, -9)
          CFI R4 Frame(CFA_Y, -8)
          CFI R5 Frame(CFA_Y, -7)
          CFI R6 Frame(CFA_Y, -6)
          CFI R7 Frame(CFA_Y, -5)
          CFI R8 Frame(CFA_Y, -4)
          CFI R9 Frame(CFA_Y, -3)
          CFI R10 Frame(CFA_Y, -2)
          CFI R11 Frame(CFA_Y, -1)
          CFI CFA_Y Y+12
??CrossCallReturnLabel_0:
        REQUIRE ?Register_R4_is_cg_reg
        REQUIRE ?Register_R5_is_cg_reg
        REQUIRE ?Register_R6_is_cg_reg
        REQUIRE ?Register_R7_is_cg_reg
        REQUIRE ?Register_R8_is_cg_reg
        REQUIRE ?Register_R9_is_cg_reg
        REQUIRE ?Register_R10_is_cg_reg
        REQUIRE ?Register_R11_is_cg_reg
        MOVW    R25:R24, R17:R16
        MOV     R8, R18
        MOV     R4, R19
//   50       unsigned long a = (14 - _month) / 12;
        LDI     R16, 14
        LDI     R17, 0
        CLR     R9
        SUB     R16, R18
        SBCI    R17, 0
        LDI     R20, 12
        LDI     R21, 0
        CALL    ?SS_DIVMOD_L02
        MOV     R18, R17
        LSL     R18
        SBC     R18, R18
//   51       unsigned long y = _year + 4800 - a;
        SUBI    R24, 64
        SBCI    R25, 237
        LDI     R26, 0
        LDI     R27, 0
        SUB     R24, R16
        SBC     R25, R17
        SBC     R26, R18
        SBC     R27, R18
//   52       unsigned long m = _month + (12 * a) - 3;
//   53 
//   54       return (_day + (((153 * m) + 2) / 5) + (365 * y) + (y / 4) - (y / 100) + (y / 400) - 32045 - 2451544);
        CLR     R5
        CLR     R6
        CLR     R7
        CLR     R10
        CLR     R11
        LDI     R20, 12
        MUL     R20, R18
        MOV     R23, R0
        MOV     R22, R0
        ADD     R23, R1
        MUL     R20, R17
        MOV     R21, R0
        ADD     R22, R1
        ADC     R23, R9
        MUL     R20, R16
        ADD     R21, R1
        ADC     R22, R9
        ADC     R23, R9
        ADD     R8, R0
        ADC     R9, R21
        ADC     R10, R22
        ADC     R11, R23
        LDI     R16, 153
        MUL     R16, R11
        MOV     R19, R0
        MUL     R16, R10
        RCALL   ?Subroutine12
??CrossCallReturnLabel_9:
        MUL     R16, R9
        MOV     R17, R0
        ADD     R18, R1
        ADC     R19, R5
        MUL     R16, R8
        MOV     R16, R0
        ADD     R17, R1
        ADC     R18, R5
        ADC     R19, R5
        SUBI    R16, 201
        SBCI    R17, 1
        SBCI    R18, 0
        SBCI    R19, 0
        RCALL   ?Subroutine7
??CrossCallReturnLabel_175:
        RCALL   ?Subroutine15
??CrossCallReturnLabel_172:
        LDI     R16, 109
        LDI     R17, 1
        LDI     R20, 0
        MUL     R17, R26
        MOV     R19, R0
        MUL     R16, R27
        ADD     R19, R0
        MUL     R17, R25
        MOV     R18, R0
        MUL     R16, R26
        RCALL   ?Subroutine17
??CrossCallReturnLabel_20:
        MUL     R17, R24
        MOV     R17, R0
        MUL     R16, R25
        RCALL   ?Subroutine16
??CrossCallReturnLabel_17:
        MUL     R16, R24
        RCALL   ??Subroutine99_0
??CrossCallReturnLabel_177:
        ADD     R4, R0
        RCALL   ??Subroutine97_0
??CrossCallReturnLabel_171:
        RCALL   ?Subroutine69
??CrossCallReturnLabel_188:
        RCALL   ?Subroutine68
??CrossCallReturnLabel_108:
        RCALL   ?Subroutine68
??CrossCallReturnLabel_109:
        RCALL   ?Subroutine15
??CrossCallReturnLabel_173:
        LDI     R20, 100
        RCALL   ??Subroutine100_0
??CrossCallReturnLabel_180:
        SUB     R4, R16
        SBC     R5, R17
        SBC     R6, R18
        SBC     R7, R19
        LDI     R20, 144
        LDI     R21, 1
        LDI     R22, 0
        LDI     R23, 0
        RCALL   ?Subroutine69
??CrossCallReturnLabel_189:
        RCALL   ?Subroutine70
??CrossCallReturnLabel_192:
        MOVW    R21:R20, R5:R4
        MOVW    R23:R22, R7:R6
        RCALL   ?Subroutine77
??CrossCallReturnLabel_118:
        SUBI    R20, 133
        SBCI    R21, 229
        SBCI    R22, 37
        SBCI    R23, 0
        MOVW    R17:R16, R21:R20
        MOVW    R19:R18, R23:R22
        RJMP    ?Subroutine27
          CFI EndBlock cfiBlock1
//   55     }

        RSEG CODE:CODE:NOROOT(1)
?Subroutine68:
          CFI Block cfiCond2 Using cfiCommon0
          CFI Function ??getPeriodNumDay
          CFI Conditional ??CrossCallReturnLabel_108
          CFI R24 Frame(CFA_Y, -12)
          CFI R25 Frame(CFA_Y, -11)
          CFI R26 Frame(CFA_Y, -10)
          CFI R27 Frame(CFA_Y, -9)
          CFI R4 Frame(CFA_Y, -8)
          CFI R5 Frame(CFA_Y, -7)
          CFI R6 Frame(CFA_Y, -6)
          CFI R7 Frame(CFA_Y, -5)
          CFI R8 Frame(CFA_Y, -4)
          CFI R9 Frame(CFA_Y, -3)
          CFI R10 Frame(CFA_Y, -2)
          CFI R11 Frame(CFA_Y, -1)
          CFI CFA_SP SP+4
          CFI CFA_Y Y+12
          CFI Block cfiCond3 Using cfiCommon0
          CFI (cfiCond3) Function ??getPeriodNumDay
          CFI (cfiCond3) Conditional ??CrossCallReturnLabel_109
          CFI (cfiCond3) R24 Frame(CFA_Y, -12)
          CFI (cfiCond3) R25 Frame(CFA_Y, -11)
          CFI (cfiCond3) R26 Frame(CFA_Y, -10)
          CFI (cfiCond3) R27 Frame(CFA_Y, -9)
          CFI (cfiCond3) R4 Frame(CFA_Y, -8)
          CFI (cfiCond3) R5 Frame(CFA_Y, -7)
          CFI (cfiCond3) R6 Frame(CFA_Y, -6)
          CFI (cfiCond3) R7 Frame(CFA_Y, -5)
          CFI (cfiCond3) R8 Frame(CFA_Y, -4)
          CFI (cfiCond3) R9 Frame(CFA_Y, -3)
          CFI (cfiCond3) R10 Frame(CFA_Y, -2)
          CFI (cfiCond3) R11 Frame(CFA_Y, -1)
          CFI (cfiCond3) CFA_SP SP+4
          CFI (cfiCond3) CFA_Y Y+12
          CFI Block cfiCond4 Using cfiCommon0
          CFI (cfiCond4) Function ??getRTCDateTimeDay
          CFI (cfiCond4) Conditional ??CrossCallReturnLabel_110, ??CrossCallReturnLabel_7
          CFI (cfiCond4) R24 Frame(CFA_Y, -16)
          CFI (cfiCond4) R25 Frame(CFA_Y, -15)
          CFI (cfiCond4) R26 Frame(CFA_Y, -14)
          CFI (cfiCond4) R27 Frame(CFA_Y, -13)
          CFI (cfiCond4) R4 Frame(CFA_Y, -12)
          CFI (cfiCond4) R5 Frame(CFA_Y, -11)
          CFI (cfiCond4) R6 Frame(CFA_Y, -10)
          CFI (cfiCond4) R7 Frame(CFA_Y, -9)
          CFI (cfiCond4) R8 Frame(CFA_Y, -8)
          CFI (cfiCond4) R9 Frame(CFA_Y, -7)
          CFI (cfiCond4) R10 Frame(CFA_Y, -6)
          CFI (cfiCond4) R11 Frame(CFA_Y, -5)
          CFI (cfiCond4) R12 Frame(CFA_Y, -4)
          CFI (cfiCond4) R13 Frame(CFA_Y, -3)
          CFI (cfiCond4) R14 Frame(CFA_Y, -2)
          CFI (cfiCond4) R15 Frame(CFA_Y, -1)
          CFI (cfiCond4) CFA_SP SP+6
          CFI (cfiCond4) CFA_Y Y+22
          CFI Block cfiCond5 Using cfiCommon0
          CFI (cfiCond5) Function ??getRTCDateTimeDay
          CFI (cfiCond5) Conditional ??CrossCallReturnLabel_110, ??CrossCallReturnLabel_8
          CFI (cfiCond5) R24 Frame(CFA_Y, -16)
          CFI (cfiCond5) R25 Frame(CFA_Y, -15)
          CFI (cfiCond5) R26 Frame(CFA_Y, -14)
          CFI (cfiCond5) R27 Frame(CFA_Y, -13)
          CFI (cfiCond5) R4 Frame(CFA_Y, -12)
          CFI (cfiCond5) R5 Frame(CFA_Y, -11)
          CFI (cfiCond5) R6 Frame(CFA_Y, -10)
          CFI (cfiCond5) R7 Frame(CFA_Y, -9)
          CFI (cfiCond5) R8 Frame(CFA_Y, -8)
          CFI (cfiCond5) R9 Frame(CFA_Y, -7)
          CFI (cfiCond5) R10 Frame(CFA_Y, -6)
          CFI (cfiCond5) R11 Frame(CFA_Y, -5)
          CFI (cfiCond5) R12 Frame(CFA_Y, -4)
          CFI (cfiCond5) R13 Frame(CFA_Y, -3)
          CFI (cfiCond5) R14 Frame(CFA_Y, -2)
          CFI (cfiCond5) R15 Frame(CFA_Y, -1)
          CFI (cfiCond5) CFA_SP SP+6
          CFI (cfiCond5) CFA_Y Y+22
          CFI Block cfiCond6 Using cfiCommon0
          CFI (cfiCond6) Function ??getRTCDateTimeDay
          CFI (cfiCond6) Conditional ??CrossCallReturnLabel_111, ??CrossCallReturnLabel_7
          CFI (cfiCond6) R24 Frame(CFA_Y, -16)
          CFI (cfiCond6) R25 Frame(CFA_Y, -15)
          CFI (cfiCond6) R26 Frame(CFA_Y, -14)
          CFI (cfiCond6) R27 Frame(CFA_Y, -13)
          CFI (cfiCond6) R4 Frame(CFA_Y, -12)
          CFI (cfiCond6) R5 Frame(CFA_Y, -11)
          CFI (cfiCond6) R6 Frame(CFA_Y, -10)
          CFI (cfiCond6) R7 Frame(CFA_Y, -9)
          CFI (cfiCond6) R8 Frame(CFA_Y, -8)
          CFI (cfiCond6) R9 Frame(CFA_Y, -7)
          CFI (cfiCond6) R10 Frame(CFA_Y, -6)
          CFI (cfiCond6) R11 Frame(CFA_Y, -5)
          CFI (cfiCond6) R12 Frame(CFA_Y, -4)
          CFI (cfiCond6) R13 Frame(CFA_Y, -3)
          CFI (cfiCond6) R14 Frame(CFA_Y, -2)
          CFI (cfiCond6) R15 Frame(CFA_Y, -1)
          CFI (cfiCond6) CFA_SP SP+6
          CFI (cfiCond6) CFA_Y Y+22
          CFI Block cfiCond7 Using cfiCommon0
          CFI (cfiCond7) Function ??getRTCDateTimeDay
          CFI (cfiCond7) Conditional ??CrossCallReturnLabel_111, ??CrossCallReturnLabel_8
          CFI (cfiCond7) R24 Frame(CFA_Y, -16)
          CFI (cfiCond7) R25 Frame(CFA_Y, -15)
          CFI (cfiCond7) R26 Frame(CFA_Y, -14)
          CFI (cfiCond7) R27 Frame(CFA_Y, -13)
          CFI (cfiCond7) R4 Frame(CFA_Y, -12)
          CFI (cfiCond7) R5 Frame(CFA_Y, -11)
          CFI (cfiCond7) R6 Frame(CFA_Y, -10)
          CFI (cfiCond7) R7 Frame(CFA_Y, -9)
          CFI (cfiCond7) R8 Frame(CFA_Y, -8)
          CFI (cfiCond7) R9 Frame(CFA_Y, -7)
          CFI (cfiCond7) R10 Frame(CFA_Y, -6)
          CFI (cfiCond7) R11 Frame(CFA_Y, -5)
          CFI (cfiCond7) R12 Frame(CFA_Y, -4)
          CFI (cfiCond7) R13 Frame(CFA_Y, -3)
          CFI (cfiCond7) R14 Frame(CFA_Y, -2)
          CFI (cfiCond7) R15 Frame(CFA_Y, -1)
          CFI (cfiCond7) CFA_SP SP+6
          CFI (cfiCond7) CFA_Y Y+22
          CFI Block cfiPicker8 Using cfiCommon1
          CFI (cfiPicker8) NoFunction
          CFI (cfiPicker8) Picker
        LSR     R19
        ROR     R18
        ROR     R17
        ROR     R16
        RET
          CFI EndBlock cfiCond2
          CFI EndBlock cfiCond3
          CFI EndBlock cfiCond4
          CFI EndBlock cfiCond5
          CFI EndBlock cfiCond6
          CFI EndBlock cfiCond7
          CFI EndBlock cfiPicker8

        RSEG CODE:CODE:NOROOT(1)
?Subroutine15:
          CFI Block cfiCond9 Using cfiCommon0
          CFI Function ??getPeriodNumDay
          CFI Conditional ??CrossCallReturnLabel_172
          CFI R24 Frame(CFA_Y, -12)
          CFI R25 Frame(CFA_Y, -11)
          CFI R26 Frame(CFA_Y, -10)
          CFI R27 Frame(CFA_Y, -9)
          CFI R4 Frame(CFA_Y, -8)
          CFI R5 Frame(CFA_Y, -7)
          CFI R6 Frame(CFA_Y, -6)
          CFI R7 Frame(CFA_Y, -5)
          CFI R8 Frame(CFA_Y, -4)
          CFI R9 Frame(CFA_Y, -3)
          CFI R10 Frame(CFA_Y, -2)
          CFI R11 Frame(CFA_Y, -1)
          CFI CFA_SP SP+4
          CFI CFA_Y Y+12
          CFI Block cfiCond10 Using cfiCommon0
          CFI (cfiCond10) Function ??getPeriodNumDay
          CFI (cfiCond10) Conditional ??CrossCallReturnLabel_173
          CFI (cfiCond10) R24 Frame(CFA_Y, -12)
          CFI (cfiCond10) R25 Frame(CFA_Y, -11)
          CFI (cfiCond10) R26 Frame(CFA_Y, -10)
          CFI (cfiCond10) R27 Frame(CFA_Y, -9)
          CFI (cfiCond10) R4 Frame(CFA_Y, -8)
          CFI (cfiCond10) R5 Frame(CFA_Y, -7)
          CFI (cfiCond10) R6 Frame(CFA_Y, -6)
          CFI (cfiCond10) R7 Frame(CFA_Y, -5)
          CFI (cfiCond10) R8 Frame(CFA_Y, -4)
          CFI (cfiCond10) R9 Frame(CFA_Y, -3)
          CFI (cfiCond10) R10 Frame(CFA_Y, -2)
          CFI (cfiCond10) R11 Frame(CFA_Y, -1)
          CFI (cfiCond10) CFA_SP SP+4
          CFI (cfiCond10) CFA_Y Y+12
          CFI Block cfiPicker11 Using cfiCommon1
          CFI (cfiPicker11) NoFunction
          CFI (cfiPicker11) Picker
        ADD     R4, R16
          CFI EndBlock cfiCond9
          CFI EndBlock cfiCond10
          CFI EndBlock cfiPicker11
        REQUIRE ??Subroutine97_0
        ;               // Fall through to label ??Subroutine97_0

        RSEG CODE:CODE:NOROOT(1)
??Subroutine97_0:
          CFI Block cfiCond12 Using cfiCommon0
          CFI Function ??getPeriodNumDay
          CFI Conditional ??CrossCallReturnLabel_171
          CFI R24 Frame(CFA_Y, -12)
          CFI R25 Frame(CFA_Y, -11)
          CFI R26 Frame(CFA_Y, -10)
          CFI R27 Frame(CFA_Y, -9)
          CFI R4 Frame(CFA_Y, -8)
          CFI R5 Frame(CFA_Y, -7)
          CFI R6 Frame(CFA_Y, -6)
          CFI R7 Frame(CFA_Y, -5)
          CFI R8 Frame(CFA_Y, -4)
          CFI R9 Frame(CFA_Y, -3)
          CFI R10 Frame(CFA_Y, -2)
          CFI R11 Frame(CFA_Y, -1)
          CFI CFA_SP SP+4
          CFI CFA_Y Y+12
          CFI Block cfiCond13 Using cfiCommon0
          CFI (cfiCond13) Function ??getPeriodNumDay
          CFI (cfiCond13) Conditional ??CrossCallReturnLabel_172
          CFI (cfiCond13) R24 Frame(CFA_Y, -12)
          CFI (cfiCond13) R25 Frame(CFA_Y, -11)
          CFI (cfiCond13) R26 Frame(CFA_Y, -10)
          CFI (cfiCond13) R27 Frame(CFA_Y, -9)
          CFI (cfiCond13) R4 Frame(CFA_Y, -8)
          CFI (cfiCond13) R5 Frame(CFA_Y, -7)
          CFI (cfiCond13) R6 Frame(CFA_Y, -6)
          CFI (cfiCond13) R7 Frame(CFA_Y, -5)
          CFI (cfiCond13) R8 Frame(CFA_Y, -4)
          CFI (cfiCond13) R9 Frame(CFA_Y, -3)
          CFI (cfiCond13) R10 Frame(CFA_Y, -2)
          CFI (cfiCond13) R11 Frame(CFA_Y, -1)
          CFI (cfiCond13) CFA_SP SP+4
          CFI (cfiCond13) CFA_Y Y+12
          CFI Block cfiCond14 Using cfiCommon0
          CFI (cfiCond14) Function ??getPeriodNumDay
          CFI (cfiCond14) Conditional ??CrossCallReturnLabel_173
          CFI (cfiCond14) R24 Frame(CFA_Y, -12)
          CFI (cfiCond14) R25 Frame(CFA_Y, -11)
          CFI (cfiCond14) R26 Frame(CFA_Y, -10)
          CFI (cfiCond14) R27 Frame(CFA_Y, -9)
          CFI (cfiCond14) R4 Frame(CFA_Y, -8)
          CFI (cfiCond14) R5 Frame(CFA_Y, -7)
          CFI (cfiCond14) R6 Frame(CFA_Y, -6)
          CFI (cfiCond14) R7 Frame(CFA_Y, -5)
          CFI (cfiCond14) R8 Frame(CFA_Y, -4)
          CFI (cfiCond14) R9 Frame(CFA_Y, -3)
          CFI (cfiCond14) R10 Frame(CFA_Y, -2)
          CFI (cfiCond14) R11 Frame(CFA_Y, -1)
          CFI (cfiCond14) CFA_SP SP+4
          CFI (cfiCond14) CFA_Y Y+12
          CFI Block cfiPicker15 Using cfiCommon1
          CFI (cfiPicker15) NoFunction
          CFI (cfiPicker15) Picker
        ADC     R5, R17
        ADC     R6, R18
        ADC     R7, R19
        RET
          CFI EndBlock cfiCond12
          CFI EndBlock cfiCond13
          CFI EndBlock cfiCond14
          CFI EndBlock cfiPicker15

        RSEG CODE:CODE:NOROOT(1)
?Subroutine7:
          CFI Block cfiCond16 Using cfiCommon0
          CFI Function ??getPeriodNumDay
          CFI Conditional ??CrossCallReturnLabel_175
          CFI R24 Frame(CFA_Y, -12)
          CFI R25 Frame(CFA_Y, -11)
          CFI R26 Frame(CFA_Y, -10)
          CFI R27 Frame(CFA_Y, -9)
          CFI R4 Frame(CFA_Y, -8)
          CFI R5 Frame(CFA_Y, -7)
          CFI R6 Frame(CFA_Y, -6)
          CFI R7 Frame(CFA_Y, -5)
          CFI R8 Frame(CFA_Y, -4)
          CFI R9 Frame(CFA_Y, -3)
          CFI R10 Frame(CFA_Y, -2)
          CFI R11 Frame(CFA_Y, -1)
          CFI CFA_SP SP+4
          CFI CFA_Y Y+12
          CFI Block cfiCond17 Using cfiCommon0
          CFI (cfiCond17) Function ??getRTCDateTimeDay
          CFI (cfiCond17) Conditional ??CrossCallReturnLabel_176
          CFI (cfiCond17) R24 Frame(CFA_Y, -16)
          CFI (cfiCond17) R25 Frame(CFA_Y, -15)
          CFI (cfiCond17) R26 Frame(CFA_Y, -14)
          CFI (cfiCond17) R27 Frame(CFA_Y, -13)
          CFI (cfiCond17) R4 Frame(CFA_Y, -12)
          CFI (cfiCond17) R5 Frame(CFA_Y, -11)
          CFI (cfiCond17) R6 Frame(CFA_Y, -10)
          CFI (cfiCond17) R7 Frame(CFA_Y, -9)
          CFI (cfiCond17) R8 Frame(CFA_Y, -8)
          CFI (cfiCond17) R9 Frame(CFA_Y, -7)
          CFI (cfiCond17) R10 Frame(CFA_Y, -6)
          CFI (cfiCond17) R11 Frame(CFA_Y, -5)
          CFI (cfiCond17) R12 Frame(CFA_Y, -4)
          CFI (cfiCond17) R13 Frame(CFA_Y, -3)
          CFI (cfiCond17) R14 Frame(CFA_Y, -2)
          CFI (cfiCond17) R15 Frame(CFA_Y, -1)
          CFI (cfiCond17) CFA_SP SP+4
          CFI (cfiCond17) CFA_Y Y+22
          CFI Block cfiPicker18 Using cfiCommon1
          CFI (cfiPicker18) NoFunction
          CFI (cfiPicker18) Picker
        LDI     R20, 5
          CFI EndBlock cfiCond16
          CFI EndBlock cfiCond17
          CFI EndBlock cfiPicker18
        REQUIRE ??Subroutine98_0
        ;               // Fall through to label ??Subroutine98_0

        RSEG CODE:CODE:NOROOT(1)
??Subroutine98_0:
          CFI Block cfiCond19 Using cfiCommon0
          CFI Function ??getRTCDateTimeDay
          CFI Conditional ??CrossCallReturnLabel_174
          CFI R24 Frame(CFA_Y, -16)
          CFI R25 Frame(CFA_Y, -15)
          CFI R26 Frame(CFA_Y, -14)
          CFI R27 Frame(CFA_Y, -13)
          CFI R4 Frame(CFA_Y, -12)
          CFI R5 Frame(CFA_Y, -11)
          CFI R6 Frame(CFA_Y, -10)
          CFI R7 Frame(CFA_Y, -9)
          CFI R8 Frame(CFA_Y, -8)
          CFI R9 Frame(CFA_Y, -7)
          CFI R10 Frame(CFA_Y, -6)
          CFI R11 Frame(CFA_Y, -5)
          CFI R12 Frame(CFA_Y, -4)
          CFI R13 Frame(CFA_Y, -3)
          CFI R14 Frame(CFA_Y, -2)
          CFI R15 Frame(CFA_Y, -1)
          CFI CFA_SP SP+4
          CFI CFA_Y Y+22
          CFI Block cfiCond20 Using cfiCommon0
          CFI (cfiCond20) Function ??getPeriodNumDay
          CFI (cfiCond20) Conditional ??CrossCallReturnLabel_175
          CFI (cfiCond20) R24 Frame(CFA_Y, -12)
          CFI (cfiCond20) R25 Frame(CFA_Y, -11)
          CFI (cfiCond20) R26 Frame(CFA_Y, -10)
          CFI (cfiCond20) R27 Frame(CFA_Y, -9)
          CFI (cfiCond20) R4 Frame(CFA_Y, -8)
          CFI (cfiCond20) R5 Frame(CFA_Y, -7)
          CFI (cfiCond20) R6 Frame(CFA_Y, -6)
          CFI (cfiCond20) R7 Frame(CFA_Y, -5)
          CFI (cfiCond20) R8 Frame(CFA_Y, -4)
          CFI (cfiCond20) R9 Frame(CFA_Y, -3)
          CFI (cfiCond20) R10 Frame(CFA_Y, -2)
          CFI (cfiCond20) R11 Frame(CFA_Y, -1)
          CFI (cfiCond20) CFA_SP SP+4
          CFI (cfiCond20) CFA_Y Y+12
          CFI Block cfiCond21 Using cfiCommon0
          CFI (cfiCond21) Function ??getRTCDateTimeDay
          CFI (cfiCond21) Conditional ??CrossCallReturnLabel_176
          CFI (cfiCond21) R24 Frame(CFA_Y, -16)
          CFI (cfiCond21) R25 Frame(CFA_Y, -15)
          CFI (cfiCond21) R26 Frame(CFA_Y, -14)
          CFI (cfiCond21) R27 Frame(CFA_Y, -13)
          CFI (cfiCond21) R4 Frame(CFA_Y, -12)
          CFI (cfiCond21) R5 Frame(CFA_Y, -11)
          CFI (cfiCond21) R6 Frame(CFA_Y, -10)
          CFI (cfiCond21) R7 Frame(CFA_Y, -9)
          CFI (cfiCond21) R8 Frame(CFA_Y, -8)
          CFI (cfiCond21) R9 Frame(CFA_Y, -7)
          CFI (cfiCond21) R10 Frame(CFA_Y, -6)
          CFI (cfiCond21) R11 Frame(CFA_Y, -5)
          CFI (cfiCond21) R12 Frame(CFA_Y, -4)
          CFI (cfiCond21) R13 Frame(CFA_Y, -3)
          CFI (cfiCond21) R14 Frame(CFA_Y, -2)
          CFI (cfiCond21) R15 Frame(CFA_Y, -1)
          CFI (cfiCond21) CFA_SP SP+4
          CFI (cfiCond21) CFA_Y Y+22
          CFI Block cfiPicker22 Using cfiCommon1
          CFI (cfiPicker22) NoFunction
          CFI (cfiPicker22) Picker
        RCALL   ?Subroutine65
??CrossCallReturnLabel_186:
        RJMP    ?Subroutine70
          CFI EndBlock cfiCond19
          CFI EndBlock cfiCond20
          CFI EndBlock cfiCond21
          CFI EndBlock cfiPicker22
//   56 

        RSEG CODE:CODE:NOROOT(1)
//   57     unsigned long getPeriodNumHour(unsigned short _year, unsigned char _month, unsigned char _day, unsigned char _hour)
??getPeriodNumHour:
          CFI Block cfiBlock23 Using cfiCommon0
          CFI Function ??getPeriodNumHour
//   58     {
        FUNCALL ??getPeriodNumHour, ??getPeriodNumDay
        LOCFRAME CSTACK, 4, STACK
        LOCFRAME RSTACK, 2, STACK
        ARGFRAME RSTACK, 0, STACK
        ST      -Y, R24
          CFI R24 Frame(CFA_Y, -1)
          CFI CFA_Y Y+1
        MOV     R24, R20
//   59       return (getPeriodNumDay(_year, _month, _day) * 24) + _hour;
        RJMP    ?Subroutine4
          CFI EndBlock cfiBlock23
//   60     }
//   61 

        RSEG CODE:CODE:NOROOT(1)
//   62     unsigned short getPeriodNumMonth(GLOBAL::RTC::TRTCDateTime* _dateTime)
??getPeriodNumMonth_1:
          CFI Block cfiBlock24 Using cfiCommon0
          CFI Function ??getPeriodNumMonth_1
//   63     {
        MOVW    R23:R22, R25:R24
//   64       return getPeriodNumMonth(
//   65         _dateTime->year,
//   66         _dateTime->month);
        MOVW    R31:R30, R17:R16
        LD      R20, Z
        LDD     R21, Z+1
        SUBI    R20, 208
        SBCI    R21, 7
        LDI     R18, 12
        MUL     R18, R21
        MOV     R19, R0
        MUL     R18, R20
        RCALL   ?Subroutine12
??CrossCallReturnLabel_10:
        LDD     R24, Z+2
        LDI     R25, 0
        SBIW    R25:R24, 1
        ADD     R18, R24
        ADC     R19, R25
        MOVW    R17:R16, R19:R18
        MOVW    R25:R24, R23:R22
        RET
          CFI EndBlock cfiBlock24
//   67     }

        RSEG CODE:CODE:NOROOT(1)
?Subroutine12:
          CFI Block cfiCond25 Using cfiCommon0
          CFI Function ??getPeriodNumDay
          CFI Conditional ??CrossCallReturnLabel_9
          CFI R24 Frame(CFA_Y, -12)
          CFI R25 Frame(CFA_Y, -11)
          CFI R26 Frame(CFA_Y, -10)
          CFI R27 Frame(CFA_Y, -9)
          CFI R4 Frame(CFA_Y, -8)
          CFI R5 Frame(CFA_Y, -7)
          CFI R6 Frame(CFA_Y, -6)
          CFI R7 Frame(CFA_Y, -5)
          CFI R8 Frame(CFA_Y, -4)
          CFI R9 Frame(CFA_Y, -3)
          CFI R10 Frame(CFA_Y, -2)
          CFI R11 Frame(CFA_Y, -1)
          CFI CFA_SP SP+4
          CFI CFA_Y Y+12
          CFI Block cfiCond26 Using cfiCommon0
          CFI (cfiCond26) Function ??getPeriodNumMonth_1
          CFI (cfiCond26) Conditional ??CrossCallReturnLabel_10
          CFI (cfiCond26) CFA_SP SP+4
          CFI Block cfiCond27 Using cfiCommon0
          CFI (cfiCond27) Function ??getRTCDateTimeDay
          CFI (cfiCond27) Conditional ??CrossCallReturnLabel_11
          CFI (cfiCond27) R24 Frame(CFA_Y, -16)
          CFI (cfiCond27) R25 Frame(CFA_Y, -15)
          CFI (cfiCond27) R26 Frame(CFA_Y, -14)
          CFI (cfiCond27) R27 Frame(CFA_Y, -13)
          CFI (cfiCond27) R4 Frame(CFA_Y, -12)
          CFI (cfiCond27) R5 Frame(CFA_Y, -11)
          CFI (cfiCond27) R6 Frame(CFA_Y, -10)
          CFI (cfiCond27) R7 Frame(CFA_Y, -9)
          CFI (cfiCond27) R8 Frame(CFA_Y, -8)
          CFI (cfiCond27) R9 Frame(CFA_Y, -7)
          CFI (cfiCond27) R10 Frame(CFA_Y, -6)
          CFI (cfiCond27) R11 Frame(CFA_Y, -5)
          CFI (cfiCond27) R12 Frame(CFA_Y, -4)
          CFI (cfiCond27) R13 Frame(CFA_Y, -3)
          CFI (cfiCond27) R14 Frame(CFA_Y, -2)
          CFI (cfiCond27) R15 Frame(CFA_Y, -1)
          CFI (cfiCond27) CFA_SP SP+4
          CFI (cfiCond27) CFA_Y Y+22
          CFI Block cfiCond28 Using cfiCommon0
          CFI (cfiCond28) Function ??getRTCDateTimeDay
          CFI (cfiCond28) Conditional ??CrossCallReturnLabel_12
          CFI (cfiCond28) R24 Frame(CFA_Y, -16)
          CFI (cfiCond28) R25 Frame(CFA_Y, -15)
          CFI (cfiCond28) R26 Frame(CFA_Y, -14)
          CFI (cfiCond28) R27 Frame(CFA_Y, -13)
          CFI (cfiCond28) R4 Frame(CFA_Y, -12)
          CFI (cfiCond28) R5 Frame(CFA_Y, -11)
          CFI (cfiCond28) R6 Frame(CFA_Y, -10)
          CFI (cfiCond28) R7 Frame(CFA_Y, -9)
          CFI (cfiCond28) R8 Frame(CFA_Y, -8)
          CFI (cfiCond28) R9 Frame(CFA_Y, -7)
          CFI (cfiCond28) R10 Frame(CFA_Y, -6)
          CFI (cfiCond28) R11 Frame(CFA_Y, -5)
          CFI (cfiCond28) R12 Frame(CFA_Y, -4)
          CFI (cfiCond28) R13 Frame(CFA_Y, -3)
          CFI (cfiCond28) R14 Frame(CFA_Y, -2)
          CFI (cfiCond28) R15 Frame(CFA_Y, -1)
          CFI (cfiCond28) CFA_SP SP+4
          CFI (cfiCond28) CFA_Y Y+22
          CFI Block cfiCond29 Using cfiCommon0
          CFI (cfiCond29) Function ??getRTCDateTimeDay
          CFI (cfiCond29) Conditional ??CrossCallReturnLabel_13
          CFI (cfiCond29) R24 Frame(CFA_Y, -16)
          CFI (cfiCond29) R25 Frame(CFA_Y, -15)
          CFI (cfiCond29) R26 Frame(CFA_Y, -14)
          CFI (cfiCond29) R27 Frame(CFA_Y, -13)
          CFI (cfiCond29) R4 Frame(CFA_Y, -12)
          CFI (cfiCond29) R5 Frame(CFA_Y, -11)
          CFI (cfiCond29) R6 Frame(CFA_Y, -10)
          CFI (cfiCond29) R7 Frame(CFA_Y, -9)
          CFI (cfiCond29) R8 Frame(CFA_Y, -8)
          CFI (cfiCond29) R9 Frame(CFA_Y, -7)
          CFI (cfiCond29) R10 Frame(CFA_Y, -6)
          CFI (cfiCond29) R11 Frame(CFA_Y, -5)
          CFI (cfiCond29) R12 Frame(CFA_Y, -4)
          CFI (cfiCond29) R13 Frame(CFA_Y, -3)
          CFI (cfiCond29) R14 Frame(CFA_Y, -2)
          CFI (cfiCond29) R15 Frame(CFA_Y, -1)
          CFI (cfiCond29) CFA_SP SP+4
          CFI (cfiCond29) CFA_Y Y+22
          CFI Block cfiPicker30 Using cfiCommon1
          CFI (cfiPicker30) NoFunction
          CFI (cfiPicker30) Picker
        MOV     R18, R0
        ADD     R19, R1
        RET
          CFI EndBlock cfiCond25
          CFI EndBlock cfiCond26
          CFI EndBlock cfiCond27
          CFI EndBlock cfiCond28
          CFI EndBlock cfiCond29
          CFI EndBlock cfiPicker30
//   68 

        RSEG CODE:CODE:NOROOT(1)
//   69     unsigned long getPeriodNumDay(GLOBAL::RTC::TRTCDateTime* _dateTime)
??getPeriodNumDay_1:
          CFI Block cfiBlock31 Using cfiCommon0
          CFI Function ??getPeriodNumDay_1
//   70     {
//   71       return getPeriodNumDay(
//   72         _dateTime->year,
//   73         _dateTime->month,
//   74         _dateTime->day);
        FUNCALL ??getPeriodNumDay_1, ??getPeriodNumDay
        LOCFRAME CSTACK, 0, STACK
        LOCFRAME RSTACK, 2, STACK
        ARGFRAME RSTACK, 0, STACK
        MOVW    R31:R30, R17:R16
        RCALL   ?Subroutine30
??CrossCallReturnLabel_35:
        RJMP    ??getPeriodNumDay
          CFI EndBlock cfiBlock31
//   75     }
//   76 

        RSEG CODE:CODE:NOROOT(1)
//   77     unsigned long getPeriodNumHour(GLOBAL::RTC::TRTCDateTime* _dateTime)
??getPeriodNumHour_1:
          CFI Block cfiBlock32 Using cfiCommon0
          CFI Function ??getPeriodNumHour_1
//   78     {
        FUNCALL ??getPeriodNumHour_1, ??getPeriodNumDay
        LOCFRAME CSTACK, 4, STACK
        LOCFRAME RSTACK, 2, STACK
        ARGFRAME RSTACK, 0, STACK
        ST      -Y, R24
          CFI R24 Frame(CFA_Y, -1)
          CFI CFA_Y Y+1
//   79       return getPeriodNumHour(
//   80         _dateTime->year,
//   81         _dateTime->month,
//   82         _dateTime->day,
//   83         _dateTime->hour);
        MOVW    R31:R30, R17:R16
        LDD     R24, Z+4
        RCALL   ?Subroutine30
??CrossCallReturnLabel_36:
        RJMP    ?Subroutine4
          CFI EndBlock cfiBlock32
//   84     }

        RSEG CODE:CODE:NOROOT(1)
?Subroutine30:
          CFI Block cfiCond33 Using cfiCommon0
          CFI Function ??getPeriodNumDay_1
          CFI Conditional ??CrossCallReturnLabel_35
          CFI CFA_SP SP+4
          CFI Block cfiCond34 Using cfiCommon0
          CFI (cfiCond34) Function ??getPeriodNumHour_1
          CFI (cfiCond34) Conditional ??CrossCallReturnLabel_36
          CFI (cfiCond34) R24 Frame(CFA_Y, -1)
          CFI (cfiCond34) CFA_SP SP+4
          CFI (cfiCond34) CFA_Y Y+1
          CFI Block cfiPicker35 Using cfiCommon1
          CFI (cfiPicker35) NoFunction
          CFI (cfiPicker35) Picker
        LDD     R19, Z+3
        LDD     R18, Z+2
        LD      R16, Z
        LDD     R17, Z+1
        RET
          CFI EndBlock cfiCond33
          CFI EndBlock cfiCond34
          CFI EndBlock cfiPicker35

        RSEG CODE:CODE:NOROOT(1)
?Subroutine4:
          CFI Block cfiBlock36 Using cfiCommon0
          CFI NoFunction
          CFI CFA_Y Y+1
          CFI R24 Frame(CFA_Y, -1)
          CFI Block cfiPicker37 Using cfiCommon1
          CFI (cfiPicker37) NoFunction
          CFI (cfiPicker37) Picker
        RCALL   ?Subroutine75
??CrossCallReturnLabel_114:
        RCALL   ?Subroutine64
??CrossCallReturnLabel_105:
        RCALL   ?Subroutine67
??CrossCallReturnLabel_107:
        ADD     R16, R24
        ADC     R17, R2
        ADC     R18, R2
        ADC     R19, R2
        LD      R24, Y+
          CFI (cfiBlock36) CFA_Y Y+0
          CFI (cfiBlock36) R24 SameValue
        RET
          CFI EndBlock cfiBlock36
          CFI EndBlock cfiPicker37
//   85 

        RSEG CODE:CODE:NOROOT(1)
//   86     void getRTCDateTimeMonth(GLOBAL::RTC::TRTCDateTime* _dateTime, unsigned short _periodNum)
??getRTCDateTimeMonth:
          CFI Block cfiBlock38 Using cfiCommon0
          CFI Function ??getRTCDateTimeMonth
//   87     {
        MOVW    R23:R22, R27:R26
        MOVW    R27:R26, R17:R16
//   88       _dateTime->month = (_periodNum % 12) + 1;
        RCALL   ?Subroutine2
??CrossCallReturnLabel_5:
        INC     R20
        ADIW    R27:R26, 2
        ST      X, R20
        SBIW    R27:R26, 2
//   89       _dateTime->year = (_periodNum / 12) + 2000;
        RCALL   ?Subroutine2
??CrossCallReturnLabel_6:
        SUBI    R16, 48
        SBCI    R17, 248
        ST      X+, R16
        ST      X, R17
//   90     }
        MOVW    R27:R26, R23:R22
        RET
          CFI EndBlock cfiBlock38

        RSEG CODE:CODE:NOROOT(1)
?Subroutine2:
          CFI Block cfiCond39 Using cfiCommon0
          CFI Function ??getRTCDateTimeMonth
          CFI Conditional ??CrossCallReturnLabel_5
          CFI CFA_SP SP+4
          CFI Block cfiCond40 Using cfiCommon0
          CFI (cfiCond40) Function ??getRTCDateTimeMonth
          CFI (cfiCond40) Conditional ??CrossCallReturnLabel_6
          CFI (cfiCond40) CFA_SP SP+4
          CFI Block cfiPicker41 Using cfiCommon1
          CFI (cfiPicker41) NoFunction
          CFI (cfiPicker41) Picker
        LDI     R20, 12
        LDI     R21, 0
        MOVW    R17:R16, R19:R18
        JMP     ?US_DIVMOD_L02
          CFI EndBlock cfiCond39
          CFI EndBlock cfiCond40
          CFI EndBlock cfiPicker41
//   91 

        RSEG CODE:CODE:NOROOT(1)
//   92     void getRTCDateTimeDay(GLOBAL::RTC::TRTCDateTime* _dateTime, unsigned long _periodNum)
??getRTCDateTimeDay:
          CFI Block cfiBlock42 Using cfiCommon0
          CFI Function ??getRTCDateTimeDay
//   93     {
        ST      -Y, R15
          CFI R15 Frame(CFA_Y, -1)
          CFI CFA_Y Y+1
        ST      -Y, R14
          CFI R14 Frame(CFA_Y, -2)
          CFI CFA_Y Y+2
        ST      -Y, R13
          CFI R13 Frame(CFA_Y, -3)
          CFI CFA_Y Y+3
        ST      -Y, R12
          CFI R12 Frame(CFA_Y, -4)
          CFI CFA_Y Y+4
        RCALL   ?Subroutine0
          CFI R24 Frame(CFA_Y, -16)
          CFI R25 Frame(CFA_Y, -15)
          CFI R26 Frame(CFA_Y, -14)
          CFI R27 Frame(CFA_Y, -13)
          CFI R4 Frame(CFA_Y, -12)
          CFI R5 Frame(CFA_Y, -11)
          CFI R6 Frame(CFA_Y, -10)
          CFI R7 Frame(CFA_Y, -9)
          CFI R8 Frame(CFA_Y, -8)
          CFI R9 Frame(CFA_Y, -7)
          CFI R10 Frame(CFA_Y, -6)
          CFI R11 Frame(CFA_Y, -5)
          CFI CFA_Y Y+16
??CrossCallReturnLabel_1:
        REQUIRE ?Register_R4_is_cg_reg
        REQUIRE ?Register_R5_is_cg_reg
        REQUIRE ?Register_R6_is_cg_reg
        REQUIRE ?Register_R7_is_cg_reg
        REQUIRE ?Register_R8_is_cg_reg
        REQUIRE ?Register_R9_is_cg_reg
        REQUIRE ?Register_R10_is_cg_reg
        REQUIRE ?Register_R11_is_cg_reg
        REQUIRE ?Register_R12_is_cg_reg
        REQUIRE ?Register_R13_is_cg_reg
        REQUIRE ?Register_R14_is_cg_reg
        REQUIRE ?Register_R15_is_cg_reg
        SBIW    R29:R28, 6
          CFI CFA_Y Y+22
        ST      Y, R16
        STD     Y+1, R17
        STD     Y+2, R20
        STD     Y+3, R21
        STD     Y+4, R22
        STD     Y+5, R23
//   94       _periodNum = _periodNum + 2451544;
        RCALL   ?Subroutine31
??CrossCallReturnLabel_37:
        SUBI    R16, 168
        SBCI    R17, 151
        SBCI    R18, 218
        SBCI    R19, 255
        STD     Y+2, R16
        STD     Y+3, R17
        STD     Y+4, R18
        STD     Y+5, R19
//   95 
//   96       unsigned long tmp = _periodNum + 32044;
        LDD     R24, Y+2
        LDD     R25, Y+3
        LDD     R26, Y+4
        MOV     R27, R19
        SUBI    R24, 212
        SBCI    R25, 130
        SBCI    R26, 255
        SBCI    R27, 255
//   97       unsigned long b = ((tmp << 2) + 3) / 146097;
        RCALL   ?Subroutine18
??CrossCallReturnLabel_24:
        LDI     R20, 177
        LDI     R21, 58
        LDI     R22, 2
        RCALL   ?Subroutine14
??CrossCallReturnLabel_196:
        MOVW    R13:R12, R17:R16
        MOVW    R15:R14, R19:R18
//   98       tmp = tmp - ((146097 * b) >> 2);
        LDI     R16, 177
        LDI     R17, 58
        LDI     R18, 2
        LDI     R20, 0
        MUL     R18, R13
        MOV     R19, R0
        MUL     R17, R14
        ADD     R19, R0
        MUL     R16, R15
        ADD     R19, R0
        MUL     R18, R12
        RCALL   ?Subroutine12
??CrossCallReturnLabel_11:
        MUL     R17, R13
        RCALL   ?Subroutine17
??CrossCallReturnLabel_21:
        MUL     R16, R14
        RCALL   ?Subroutine17
??CrossCallReturnLabel_22:
        MUL     R17, R12
        RCALL   ?Subroutine13
??CrossCallReturnLabel_14:
        MUL     R16, R13
        RCALL   ?Subroutine16
??CrossCallReturnLabel_18:
        MUL     R16, R12
        RCALL   ?Subroutine5
//   99       unsigned long d = ((tmp << 2) + 3) / 1461;
??CrossCallReturnLabel_7:
        RCALL   ?Subroutine18
??CrossCallReturnLabel_25:
        LDI     R20, 181
        LDI     R21, 5
        LDI     R22, 0
        RCALL   ?Subroutine14
??CrossCallReturnLabel_197:
        MOVW    R9:R8, R17:R16
        MOVW    R11:R10, R19:R18
//  100       tmp = tmp - ((1461 * d) >> 2);
        LDI     R16, 181
        LDI     R17, 5
        LDI     R20, 0
        MUL     R17, R18
        MOV     R19, R0
        MUL     R16, R11
        ADD     R19, R0
        MUL     R17, R9
        RCALL   ?Subroutine12
??CrossCallReturnLabel_12:
        MUL     R16, R10
        RCALL   ?Subroutine17
??CrossCallReturnLabel_23:
        MUL     R17, R8
        RCALL   ?Subroutine13
??CrossCallReturnLabel_15:
        MUL     R16, R9
        RCALL   ?Subroutine16
??CrossCallReturnLabel_19:
        MUL     R16, R8
        RCALL   ?Subroutine5
//  101       unsigned long m = ((5 * tmp) + 2) / 153;
??CrossCallReturnLabel_8:
        LDI     R16, 5
        MUL     R16, R27
        MOV     R19, R0
        MUL     R16, R26
        RCALL   ?Subroutine12
??CrossCallReturnLabel_13:
        MUL     R16, R25
        RCALL   ?Subroutine13
??CrossCallReturnLabel_16:
        MUL     R16, R24
        RCALL   ?Subroutine9
??CrossCallReturnLabel_116:
        LDI     R20, 153
        RCALL   ??Subroutine98_0
??CrossCallReturnLabel_174:
        MOVW    R5:R4, R17:R16
        MOVW    R7:R6, R19:R18
//  102 
//  103       _dateTime->day = tmp - (((153 * m) + 2) / 5) + 1;
        LDI     R16, 153
        LDI     R20, 0
        RCALL   ?Subroutine64
??CrossCallReturnLabel_103:
        ADC     R19, R20
        MUL     R16, R4
        RCALL   ?Subroutine9
??CrossCallReturnLabel_117:
        RCALL   ?Subroutine7
??CrossCallReturnLabel_176:
        SUB     R24, R16
        INC     R24
        LD      R30, Y
        LDD     R31, Y+1
        STD     Z+3, R24
//  104       _dateTime->month = m + 3 - (12 * (m / 10));
        LDI     R20, 10
        RCALL   ?Subroutine65
??CrossCallReturnLabel_183:
        MOVW    R17:R16, R5:R4
        MOVW    R19:R18, R7:R6
        RCALL   ?Subroutine70
??CrossCallReturnLabel_193:
        MOV     R22, R4
        SUBI    R22, 253
        MOV     R21, R16
        LDI     R20, 12
        MUL     R21, R20
        SUB     R22, R0
        LD      R30, Y
        LDD     R31, Y+1
        STD     Z+2, R22
//  105       _dateTime->year = (100 * b) + d - 4800 + (m / 10);
        LDI     R20, 100
        MUL     R20, R13
        MOV     R21, R0
        MUL     R20, R12
        MOV     R20, R0
        ADD     R21, R1
        ADD     R20, R8
        ADC     R21, R9
        ADD     R20, R16
        ADC     R21, R17
        SUBI    R20, 192
        SBCI    R21, 18
        LD      R30, Y
        LDD     R31, Y+1
        ST      Z, R20
        STD     Z+1, R21
//  106       _dateTime->weekDay = _periodNum % 7;
        LDI     R20, 7
        RCALL   ?Subroutine65
??CrossCallReturnLabel_184:
        RCALL   ?Subroutine31
??CrossCallReturnLabel_38:
        RCALL   ?Subroutine70
??CrossCallReturnLabel_194:
        LD      R26, Y
        LDD     R27, Y+1
        ADIW    R27:R26, 7
        ST      X, R0
//  107     }
        ADIW    R29:R28, 6
          CFI CFA_Y Y+16
        RCALL   ?Subroutine27
          CFI R10 SameValue
          CFI R11 SameValue
          CFI R24 SameValue
          CFI R25 SameValue
          CFI R26 SameValue
          CFI R27 SameValue
          CFI R4 SameValue
          CFI R5 SameValue
          CFI R6 SameValue
          CFI R7 SameValue
          CFI R8 SameValue
          CFI R9 SameValue
          CFI CFA_Y Y+4
??CrossCallReturnLabel_34:
        LD      R12, Y+
          CFI R12 SameValue
          CFI CFA_Y Y+3
        LD      R13, Y+
          CFI R13 SameValue
          CFI CFA_Y Y+2
        LD      R14, Y+
          CFI R14 SameValue
          CFI CFA_Y Y+1
        LD      R15, Y+
          CFI R15 SameValue
          CFI CFA_Y Y+0
        RET
          CFI EndBlock cfiBlock42

        RSEG CODE:CODE:NOROOT(1)
?Subroutine31:
          CFI Block cfiCond43 Using cfiCommon0
          CFI Function ??getRTCDateTimeDay
          CFI Conditional ??CrossCallReturnLabel_37
          CFI R24 Frame(CFA_Y, -16)
          CFI R25 Frame(CFA_Y, -15)
          CFI R26 Frame(CFA_Y, -14)
          CFI R27 Frame(CFA_Y, -13)
          CFI R4 Frame(CFA_Y, -12)
          CFI R5 Frame(CFA_Y, -11)
          CFI R6 Frame(CFA_Y, -10)
          CFI R7 Frame(CFA_Y, -9)
          CFI R8 Frame(CFA_Y, -8)
          CFI R9 Frame(CFA_Y, -7)
          CFI R10 Frame(CFA_Y, -6)
          CFI R11 Frame(CFA_Y, -5)
          CFI R12 Frame(CFA_Y, -4)
          CFI R13 Frame(CFA_Y, -3)
          CFI R14 Frame(CFA_Y, -2)
          CFI R15 Frame(CFA_Y, -1)
          CFI CFA_SP SP+4
          CFI CFA_Y Y+22
          CFI Block cfiCond44 Using cfiCommon0
          CFI (cfiCond44) Function ??getRTCDateTimeDay
          CFI (cfiCond44) Conditional ??CrossCallReturnLabel_38
          CFI (cfiCond44) R24 Frame(CFA_Y, -16)
          CFI (cfiCond44) R25 Frame(CFA_Y, -15)
          CFI (cfiCond44) R26 Frame(CFA_Y, -14)
          CFI (cfiCond44) R27 Frame(CFA_Y, -13)
          CFI (cfiCond44) R4 Frame(CFA_Y, -12)
          CFI (cfiCond44) R5 Frame(CFA_Y, -11)
          CFI (cfiCond44) R6 Frame(CFA_Y, -10)
          CFI (cfiCond44) R7 Frame(CFA_Y, -9)
          CFI (cfiCond44) R8 Frame(CFA_Y, -8)
          CFI (cfiCond44) R9 Frame(CFA_Y, -7)
          CFI (cfiCond44) R10 Frame(CFA_Y, -6)
          CFI (cfiCond44) R11 Frame(CFA_Y, -5)
          CFI (cfiCond44) R12 Frame(CFA_Y, -4)
          CFI (cfiCond44) R13 Frame(CFA_Y, -3)
          CFI (cfiCond44) R14 Frame(CFA_Y, -2)
          CFI (cfiCond44) R15 Frame(CFA_Y, -1)
          CFI (cfiCond44) CFA_SP SP+4
          CFI (cfiCond44) CFA_Y Y+22
          CFI Block cfiPicker45 Using cfiCommon1
          CFI (cfiPicker45) NoFunction
          CFI (cfiPicker45) Picker
        LDD     R16, Y+2
        LDD     R17, Y+3
        LDD     R18, Y+4
        LDD     R19, Y+5
        RET
          CFI EndBlock cfiCond43
          CFI EndBlock cfiCond44
          CFI EndBlock cfiPicker45

        RSEG CODE:CODE:NOROOT(1)
?Subroutine18:
          CFI Block cfiCond46 Using cfiCommon0
          CFI Function ??getRTCDateTimeDay
          CFI Conditional ??CrossCallReturnLabel_24
          CFI R24 Frame(CFA_Y, -16)
          CFI R25 Frame(CFA_Y, -15)
          CFI R26 Frame(CFA_Y, -14)
          CFI R27 Frame(CFA_Y, -13)
          CFI R4 Frame(CFA_Y, -12)
          CFI R5 Frame(CFA_Y, -11)
          CFI R6 Frame(CFA_Y, -10)
          CFI R7 Frame(CFA_Y, -9)
          CFI R8 Frame(CFA_Y, -8)
          CFI R9 Frame(CFA_Y, -7)
          CFI R10 Frame(CFA_Y, -6)
          CFI R11 Frame(CFA_Y, -5)
          CFI R12 Frame(CFA_Y, -4)
          CFI R13 Frame(CFA_Y, -3)
          CFI R14 Frame(CFA_Y, -2)
          CFI R15 Frame(CFA_Y, -1)
          CFI CFA_SP SP+4
          CFI CFA_Y Y+22
          CFI Block cfiCond47 Using cfiCommon0
          CFI (cfiCond47) Function ??getRTCDateTimeDay
          CFI (cfiCond47) Conditional ??CrossCallReturnLabel_25
          CFI (cfiCond47) R24 Frame(CFA_Y, -16)
          CFI (cfiCond47) R25 Frame(CFA_Y, -15)
          CFI (cfiCond47) R26 Frame(CFA_Y, -14)
          CFI (cfiCond47) R27 Frame(CFA_Y, -13)
          CFI (cfiCond47) R4 Frame(CFA_Y, -12)
          CFI (cfiCond47) R5 Frame(CFA_Y, -11)
          CFI (cfiCond47) R6 Frame(CFA_Y, -10)
          CFI (cfiCond47) R7 Frame(CFA_Y, -9)
          CFI (cfiCond47) R8 Frame(CFA_Y, -8)
          CFI (cfiCond47) R9 Frame(CFA_Y, -7)
          CFI (cfiCond47) R10 Frame(CFA_Y, -6)
          CFI (cfiCond47) R11 Frame(CFA_Y, -5)
          CFI (cfiCond47) R12 Frame(CFA_Y, -4)
          CFI (cfiCond47) R13 Frame(CFA_Y, -3)
          CFI (cfiCond47) R14 Frame(CFA_Y, -2)
          CFI (cfiCond47) R15 Frame(CFA_Y, -1)
          CFI (cfiCond47) CFA_SP SP+4
          CFI (cfiCond47) CFA_Y Y+22
          CFI Block cfiPicker48 Using cfiCommon1
          CFI (cfiPicker48) NoFunction
          CFI (cfiPicker48) Picker
        RCALL   ?Subroutine69
??CrossCallReturnLabel_190:
        RCALL   ?Subroutine78
??CrossCallReturnLabel_122:
        RCALL   ?Subroutine78
??CrossCallReturnLabel_123:
        SUBI    R16, 253
        RJMP    ?Subroutine76
          CFI EndBlock cfiCond46
          CFI EndBlock cfiCond47
          CFI EndBlock cfiPicker48

        RSEG CODE:CODE:NOROOT(1)
?Subroutine78:
          CFI Block cfiCond49 Using cfiCommon0
          CFI Function ??getRTCDateTimeDay
          CFI Conditional ??CrossCallReturnLabel_122, ??CrossCallReturnLabel_24
          CFI R24 Frame(CFA_Y, -16)
          CFI R25 Frame(CFA_Y, -15)
          CFI R26 Frame(CFA_Y, -14)
          CFI R27 Frame(CFA_Y, -13)
          CFI R4 Frame(CFA_Y, -12)
          CFI R5 Frame(CFA_Y, -11)
          CFI R6 Frame(CFA_Y, -10)
          CFI R7 Frame(CFA_Y, -9)
          CFI R8 Frame(CFA_Y, -8)
          CFI R9 Frame(CFA_Y, -7)
          CFI R10 Frame(CFA_Y, -6)
          CFI R11 Frame(CFA_Y, -5)
          CFI R12 Frame(CFA_Y, -4)
          CFI R13 Frame(CFA_Y, -3)
          CFI R14 Frame(CFA_Y, -2)
          CFI R15 Frame(CFA_Y, -1)
          CFI CFA_SP SP+6
          CFI CFA_Y Y+22
          CFI Block cfiCond50 Using cfiCommon0
          CFI (cfiCond50) Function ??getRTCDateTimeDay
          CFI (cfiCond50) Conditional ??CrossCallReturnLabel_122, ??CrossCallReturnLabel_25
          CFI (cfiCond50) R24 Frame(CFA_Y, -16)
          CFI (cfiCond50) R25 Frame(CFA_Y, -15)
          CFI (cfiCond50) R26 Frame(CFA_Y, -14)
          CFI (cfiCond50) R27 Frame(CFA_Y, -13)
          CFI (cfiCond50) R4 Frame(CFA_Y, -12)
          CFI (cfiCond50) R5 Frame(CFA_Y, -11)
          CFI (cfiCond50) R6 Frame(CFA_Y, -10)
          CFI (cfiCond50) R7 Frame(CFA_Y, -9)
          CFI (cfiCond50) R8 Frame(CFA_Y, -8)
          CFI (cfiCond50) R9 Frame(CFA_Y, -7)
          CFI (cfiCond50) R10 Frame(CFA_Y, -6)
          CFI (cfiCond50) R11 Frame(CFA_Y, -5)
          CFI (cfiCond50) R12 Frame(CFA_Y, -4)
          CFI (cfiCond50) R13 Frame(CFA_Y, -3)
          CFI (cfiCond50) R14 Frame(CFA_Y, -2)
          CFI (cfiCond50) R15 Frame(CFA_Y, -1)
          CFI (cfiCond50) CFA_SP SP+6
          CFI (cfiCond50) CFA_Y Y+22
          CFI Block cfiCond51 Using cfiCommon0
          CFI (cfiCond51) Function ??getRTCDateTimeDay
          CFI (cfiCond51) Conditional ??CrossCallReturnLabel_123, ??CrossCallReturnLabel_24
          CFI (cfiCond51) R24 Frame(CFA_Y, -16)
          CFI (cfiCond51) R25 Frame(CFA_Y, -15)
          CFI (cfiCond51) R26 Frame(CFA_Y, -14)
          CFI (cfiCond51) R27 Frame(CFA_Y, -13)
          CFI (cfiCond51) R4 Frame(CFA_Y, -12)
          CFI (cfiCond51) R5 Frame(CFA_Y, -11)
          CFI (cfiCond51) R6 Frame(CFA_Y, -10)
          CFI (cfiCond51) R7 Frame(CFA_Y, -9)
          CFI (cfiCond51) R8 Frame(CFA_Y, -8)
          CFI (cfiCond51) R9 Frame(CFA_Y, -7)
          CFI (cfiCond51) R10 Frame(CFA_Y, -6)
          CFI (cfiCond51) R11 Frame(CFA_Y, -5)
          CFI (cfiCond51) R12 Frame(CFA_Y, -4)
          CFI (cfiCond51) R13 Frame(CFA_Y, -3)
          CFI (cfiCond51) R14 Frame(CFA_Y, -2)
          CFI (cfiCond51) R15 Frame(CFA_Y, -1)
          CFI (cfiCond51) CFA_SP SP+6
          CFI (cfiCond51) CFA_Y Y+22
          CFI Block cfiCond52 Using cfiCommon0
          CFI (cfiCond52) Function ??getRTCDateTimeDay
          CFI (cfiCond52) Conditional ??CrossCallReturnLabel_123, ??CrossCallReturnLabel_25
          CFI (cfiCond52) R24 Frame(CFA_Y, -16)
          CFI (cfiCond52) R25 Frame(CFA_Y, -15)
          CFI (cfiCond52) R26 Frame(CFA_Y, -14)
          CFI (cfiCond52) R27 Frame(CFA_Y, -13)
          CFI (cfiCond52) R4 Frame(CFA_Y, -12)
          CFI (cfiCond52) R5 Frame(CFA_Y, -11)
          CFI (cfiCond52) R6 Frame(CFA_Y, -10)
          CFI (cfiCond52) R7 Frame(CFA_Y, -9)
          CFI (cfiCond52) R8 Frame(CFA_Y, -8)
          CFI (cfiCond52) R9 Frame(CFA_Y, -7)
          CFI (cfiCond52) R10 Frame(CFA_Y, -6)
          CFI (cfiCond52) R11 Frame(CFA_Y, -5)
          CFI (cfiCond52) R12 Frame(CFA_Y, -4)
          CFI (cfiCond52) R13 Frame(CFA_Y, -3)
          CFI (cfiCond52) R14 Frame(CFA_Y, -2)
          CFI (cfiCond52) R15 Frame(CFA_Y, -1)
          CFI (cfiCond52) CFA_SP SP+6
          CFI (cfiCond52) CFA_Y Y+22
          CFI Block cfiPicker53 Using cfiCommon1
          CFI (cfiPicker53) NoFunction
          CFI (cfiPicker53) Picker
        LSL     R16
        ROL     R17
        ROL     R18
        ROL     R19
        RET
          CFI EndBlock cfiCond49
          CFI EndBlock cfiCond50
          CFI EndBlock cfiCond51
          CFI EndBlock cfiCond52
          CFI EndBlock cfiPicker53

        RSEG CODE:CODE:NOROOT(1)
?Subroutine69:
          CFI Block cfiCond54 Using cfiCommon0
          CFI Function ??getPeriodNumDay
          CFI Conditional ??CrossCallReturnLabel_188
          CFI R24 Frame(CFA_Y, -12)
          CFI R25 Frame(CFA_Y, -11)
          CFI R26 Frame(CFA_Y, -10)
          CFI R27 Frame(CFA_Y, -9)
          CFI R4 Frame(CFA_Y, -8)
          CFI R5 Frame(CFA_Y, -7)
          CFI R6 Frame(CFA_Y, -6)
          CFI R7 Frame(CFA_Y, -5)
          CFI R8 Frame(CFA_Y, -4)
          CFI R9 Frame(CFA_Y, -3)
          CFI R10 Frame(CFA_Y, -2)
          CFI R11 Frame(CFA_Y, -1)
          CFI CFA_SP SP+4
          CFI CFA_Y Y+12
          CFI Block cfiCond55 Using cfiCommon0
          CFI (cfiCond55) Function ??getPeriodNumDay
          CFI (cfiCond55) Conditional ??CrossCallReturnLabel_189
          CFI (cfiCond55) R24 Frame(CFA_Y, -12)
          CFI (cfiCond55) R25 Frame(CFA_Y, -11)
          CFI (cfiCond55) R26 Frame(CFA_Y, -10)
          CFI (cfiCond55) R27 Frame(CFA_Y, -9)
          CFI (cfiCond55) R4 Frame(CFA_Y, -8)
          CFI (cfiCond55) R5 Frame(CFA_Y, -7)
          CFI (cfiCond55) R6 Frame(CFA_Y, -6)
          CFI (cfiCond55) R7 Frame(CFA_Y, -5)
          CFI (cfiCond55) R8 Frame(CFA_Y, -4)
          CFI (cfiCond55) R9 Frame(CFA_Y, -3)
          CFI (cfiCond55) R10 Frame(CFA_Y, -2)
          CFI (cfiCond55) R11 Frame(CFA_Y, -1)
          CFI (cfiCond55) CFA_SP SP+4
          CFI (cfiCond55) CFA_Y Y+12
          CFI Block cfiCond56 Using cfiCommon0
          CFI (cfiCond56) Function ??getRTCDateTimeDay
          CFI (cfiCond56) Conditional ??CrossCallReturnLabel_190, ??CrossCallReturnLabel_24
          CFI (cfiCond56) R24 Frame(CFA_Y, -16)
          CFI (cfiCond56) R25 Frame(CFA_Y, -15)
          CFI (cfiCond56) R26 Frame(CFA_Y, -14)
          CFI (cfiCond56) R27 Frame(CFA_Y, -13)
          CFI (cfiCond56) R4 Frame(CFA_Y, -12)
          CFI (cfiCond56) R5 Frame(CFA_Y, -11)
          CFI (cfiCond56) R6 Frame(CFA_Y, -10)
          CFI (cfiCond56) R7 Frame(CFA_Y, -9)
          CFI (cfiCond56) R8 Frame(CFA_Y, -8)
          CFI (cfiCond56) R9 Frame(CFA_Y, -7)
          CFI (cfiCond56) R10 Frame(CFA_Y, -6)
          CFI (cfiCond56) R11 Frame(CFA_Y, -5)
          CFI (cfiCond56) R12 Frame(CFA_Y, -4)
          CFI (cfiCond56) R13 Frame(CFA_Y, -3)
          CFI (cfiCond56) R14 Frame(CFA_Y, -2)
          CFI (cfiCond56) R15 Frame(CFA_Y, -1)
          CFI (cfiCond56) CFA_SP SP+6
          CFI (cfiCond56) CFA_Y Y+22
          CFI Block cfiCond57 Using cfiCommon0
          CFI (cfiCond57) Function ??getRTCDateTimeDay
          CFI (cfiCond57) Conditional ??CrossCallReturnLabel_190, ??CrossCallReturnLabel_25
          CFI (cfiCond57) R24 Frame(CFA_Y, -16)
          CFI (cfiCond57) R25 Frame(CFA_Y, -15)
          CFI (cfiCond57) R26 Frame(CFA_Y, -14)
          CFI (cfiCond57) R27 Frame(CFA_Y, -13)
          CFI (cfiCond57) R4 Frame(CFA_Y, -12)
          CFI (cfiCond57) R5 Frame(CFA_Y, -11)
          CFI (cfiCond57) R6 Frame(CFA_Y, -10)
          CFI (cfiCond57) R7 Frame(CFA_Y, -9)
          CFI (cfiCond57) R8 Frame(CFA_Y, -8)
          CFI (cfiCond57) R9 Frame(CFA_Y, -7)
          CFI (cfiCond57) R10 Frame(CFA_Y, -6)
          CFI (cfiCond57) R11 Frame(CFA_Y, -5)
          CFI (cfiCond57) R12 Frame(CFA_Y, -4)
          CFI (cfiCond57) R13 Frame(CFA_Y, -3)
          CFI (cfiCond57) R14 Frame(CFA_Y, -2)
          CFI (cfiCond57) R15 Frame(CFA_Y, -1)
          CFI (cfiCond57) CFA_SP SP+6
          CFI (cfiCond57) CFA_Y Y+22
          CFI Block cfiCond58 Using cfiCommon0
          CFI (cfiCond58) Function ??getRTCDateTimeHour
          CFI (cfiCond58) Conditional ??CrossCallReturnLabel_191, ??CrossCallReturnLabel_181
          CFI (cfiCond58) R24 Frame(CFA_Y, -6)
          CFI (cfiCond58) R25 Frame(CFA_Y, -5)
          CFI (cfiCond58) R26 Frame(CFA_Y, -4)
          CFI (cfiCond58) R27 Frame(CFA_Y, -3)
          CFI (cfiCond58) R4 Frame(CFA_Y, -2)
          CFI (cfiCond58) R5 Frame(CFA_Y, -1)
          CFI (cfiCond58) CFA_SP SP+6
          CFI (cfiCond58) CFA_Y Y+6
          CFI Block cfiCond59 Using cfiCommon0
          CFI (cfiCond59) Function ??getRTCDateTimeHour
          CFI (cfiCond59) Conditional ??CrossCallReturnLabel_191, ??CrossCallReturnLabel_182
          CFI (cfiCond59) R24 Frame(CFA_Y, -6)
          CFI (cfiCond59) R25 Frame(CFA_Y, -5)
          CFI (cfiCond59) R26 Frame(CFA_Y, -4)
          CFI (cfiCond59) R27 Frame(CFA_Y, -3)
          CFI (cfiCond59) R4 Frame(CFA_Y, -2)
          CFI (cfiCond59) R5 Frame(CFA_Y, -1)
          CFI (cfiCond59) CFA_SP SP+6
          CFI (cfiCond59) CFA_Y Y+6
          CFI Block cfiCond60 Using cfiCommon0
          CFI (cfiCond60) Function ??getPeriodNumDay
          CFI (cfiCond60) Conditional ??CrossCallReturnLabel_191, ??CrossCallReturnLabel_180
          CFI (cfiCond60) R24 Frame(CFA_Y, -12)
          CFI (cfiCond60) R25 Frame(CFA_Y, -11)
          CFI (cfiCond60) R26 Frame(CFA_Y, -10)
          CFI (cfiCond60) R27 Frame(CFA_Y, -9)
          CFI (cfiCond60) R4 Frame(CFA_Y, -8)
          CFI (cfiCond60) R5 Frame(CFA_Y, -7)
          CFI (cfiCond60) R6 Frame(CFA_Y, -6)
          CFI (cfiCond60) R7 Frame(CFA_Y, -5)
          CFI (cfiCond60) R8 Frame(CFA_Y, -4)
          CFI (cfiCond60) R9 Frame(CFA_Y, -3)
          CFI (cfiCond60) R10 Frame(CFA_Y, -2)
          CFI (cfiCond60) R11 Frame(CFA_Y, -1)
          CFI (cfiCond60) CFA_SP SP+6
          CFI (cfiCond60) CFA_Y Y+12
          CFI Block cfiPicker61 Using cfiCommon1
          CFI (cfiPicker61) NoFunction
          CFI (cfiPicker61) Picker
        MOVW    R17:R16, R25:R24
        MOVW    R19:R18, R27:R26
        RET
          CFI EndBlock cfiCond54
          CFI EndBlock cfiCond55
          CFI EndBlock cfiCond56
          CFI EndBlock cfiCond57
          CFI EndBlock cfiCond58
          CFI EndBlock cfiCond59
          CFI EndBlock cfiCond60
          CFI EndBlock cfiPicker61

        RSEG CODE:CODE:NOROOT(1)
?Subroutine17:
          CFI Block cfiCond62 Using cfiCommon0
          CFI Function ??getPeriodNumDay
          CFI Conditional ??CrossCallReturnLabel_20
          CFI R24 Frame(CFA_Y, -12)
          CFI R25 Frame(CFA_Y, -11)
          CFI R26 Frame(CFA_Y, -10)
          CFI R27 Frame(CFA_Y, -9)
          CFI R4 Frame(CFA_Y, -8)
          CFI R5 Frame(CFA_Y, -7)
          CFI R6 Frame(CFA_Y, -6)
          CFI R7 Frame(CFA_Y, -5)
          CFI R8 Frame(CFA_Y, -4)
          CFI R9 Frame(CFA_Y, -3)
          CFI R10 Frame(CFA_Y, -2)
          CFI R11 Frame(CFA_Y, -1)
          CFI CFA_SP SP+4
          CFI CFA_Y Y+12
          CFI Block cfiCond63 Using cfiCommon0
          CFI (cfiCond63) Function ??getRTCDateTimeDay
          CFI (cfiCond63) Conditional ??CrossCallReturnLabel_21
          CFI (cfiCond63) R24 Frame(CFA_Y, -16)
          CFI (cfiCond63) R25 Frame(CFA_Y, -15)
          CFI (cfiCond63) R26 Frame(CFA_Y, -14)
          CFI (cfiCond63) R27 Frame(CFA_Y, -13)
          CFI (cfiCond63) R4 Frame(CFA_Y, -12)
          CFI (cfiCond63) R5 Frame(CFA_Y, -11)
          CFI (cfiCond63) R6 Frame(CFA_Y, -10)
          CFI (cfiCond63) R7 Frame(CFA_Y, -9)
          CFI (cfiCond63) R8 Frame(CFA_Y, -8)
          CFI (cfiCond63) R9 Frame(CFA_Y, -7)
          CFI (cfiCond63) R10 Frame(CFA_Y, -6)
          CFI (cfiCond63) R11 Frame(CFA_Y, -5)
          CFI (cfiCond63) R12 Frame(CFA_Y, -4)
          CFI (cfiCond63) R13 Frame(CFA_Y, -3)
          CFI (cfiCond63) R14 Frame(CFA_Y, -2)
          CFI (cfiCond63) R15 Frame(CFA_Y, -1)
          CFI (cfiCond63) CFA_SP SP+4
          CFI (cfiCond63) CFA_Y Y+22
          CFI Block cfiCond64 Using cfiCommon0
          CFI (cfiCond64) Function ??getRTCDateTimeDay
          CFI (cfiCond64) Conditional ??CrossCallReturnLabel_22
          CFI (cfiCond64) R24 Frame(CFA_Y, -16)
          CFI (cfiCond64) R25 Frame(CFA_Y, -15)
          CFI (cfiCond64) R26 Frame(CFA_Y, -14)
          CFI (cfiCond64) R27 Frame(CFA_Y, -13)
          CFI (cfiCond64) R4 Frame(CFA_Y, -12)
          CFI (cfiCond64) R5 Frame(CFA_Y, -11)
          CFI (cfiCond64) R6 Frame(CFA_Y, -10)
          CFI (cfiCond64) R7 Frame(CFA_Y, -9)
          CFI (cfiCond64) R8 Frame(CFA_Y, -8)
          CFI (cfiCond64) R9 Frame(CFA_Y, -7)
          CFI (cfiCond64) R10 Frame(CFA_Y, -6)
          CFI (cfiCond64) R11 Frame(CFA_Y, -5)
          CFI (cfiCond64) R12 Frame(CFA_Y, -4)
          CFI (cfiCond64) R13 Frame(CFA_Y, -3)
          CFI (cfiCond64) R14 Frame(CFA_Y, -2)
          CFI (cfiCond64) R15 Frame(CFA_Y, -1)
          CFI (cfiCond64) CFA_SP SP+4
          CFI (cfiCond64) CFA_Y Y+22
          CFI Block cfiCond65 Using cfiCommon0
          CFI (cfiCond65) Function ??getRTCDateTimeDay
          CFI (cfiCond65) Conditional ??CrossCallReturnLabel_23
          CFI (cfiCond65) R24 Frame(CFA_Y, -16)
          CFI (cfiCond65) R25 Frame(CFA_Y, -15)
          CFI (cfiCond65) R26 Frame(CFA_Y, -14)
          CFI (cfiCond65) R27 Frame(CFA_Y, -13)
          CFI (cfiCond65) R4 Frame(CFA_Y, -12)
          CFI (cfiCond65) R5 Frame(CFA_Y, -11)
          CFI (cfiCond65) R6 Frame(CFA_Y, -10)
          CFI (cfiCond65) R7 Frame(CFA_Y, -9)
          CFI (cfiCond65) R8 Frame(CFA_Y, -8)
          CFI (cfiCond65) R9 Frame(CFA_Y, -7)
          CFI (cfiCond65) R10 Frame(CFA_Y, -6)
          CFI (cfiCond65) R11 Frame(CFA_Y, -5)
          CFI (cfiCond65) R12 Frame(CFA_Y, -4)
          CFI (cfiCond65) R13 Frame(CFA_Y, -3)
          CFI (cfiCond65) R14 Frame(CFA_Y, -2)
          CFI (cfiCond65) R15 Frame(CFA_Y, -1)
          CFI (cfiCond65) CFA_SP SP+4
          CFI (cfiCond65) CFA_Y Y+22
          CFI Block cfiPicker66 Using cfiCommon1
          CFI (cfiPicker66) NoFunction
          CFI (cfiPicker66) Picker
        ADD     R18, R0
        ADC     R19, R1
        RET
          CFI EndBlock cfiCond62
          CFI EndBlock cfiCond63
          CFI EndBlock cfiCond64
          CFI EndBlock cfiCond65
          CFI EndBlock cfiPicker66

        RSEG CODE:CODE:NOROOT(1)
?Subroutine16:
          CFI Block cfiCond67 Using cfiCommon0
          CFI Function ??getPeriodNumDay
          CFI Conditional ??CrossCallReturnLabel_17
          CFI R24 Frame(CFA_Y, -12)
          CFI R25 Frame(CFA_Y, -11)
          CFI R26 Frame(CFA_Y, -10)
          CFI R27 Frame(CFA_Y, -9)
          CFI R4 Frame(CFA_Y, -8)
          CFI R5 Frame(CFA_Y, -7)
          CFI R6 Frame(CFA_Y, -6)
          CFI R7 Frame(CFA_Y, -5)
          CFI R8 Frame(CFA_Y, -4)
          CFI R9 Frame(CFA_Y, -3)
          CFI R10 Frame(CFA_Y, -2)
          CFI R11 Frame(CFA_Y, -1)
          CFI CFA_SP SP+4
          CFI CFA_Y Y+12
          CFI Block cfiCond68 Using cfiCommon0
          CFI (cfiCond68) Function ??getRTCDateTimeDay
          CFI (cfiCond68) Conditional ??CrossCallReturnLabel_18
          CFI (cfiCond68) R24 Frame(CFA_Y, -16)
          CFI (cfiCond68) R25 Frame(CFA_Y, -15)
          CFI (cfiCond68) R26 Frame(CFA_Y, -14)
          CFI (cfiCond68) R27 Frame(CFA_Y, -13)
          CFI (cfiCond68) R4 Frame(CFA_Y, -12)
          CFI (cfiCond68) R5 Frame(CFA_Y, -11)
          CFI (cfiCond68) R6 Frame(CFA_Y, -10)
          CFI (cfiCond68) R7 Frame(CFA_Y, -9)
          CFI (cfiCond68) R8 Frame(CFA_Y, -8)
          CFI (cfiCond68) R9 Frame(CFA_Y, -7)
          CFI (cfiCond68) R10 Frame(CFA_Y, -6)
          CFI (cfiCond68) R11 Frame(CFA_Y, -5)
          CFI (cfiCond68) R12 Frame(CFA_Y, -4)
          CFI (cfiCond68) R13 Frame(CFA_Y, -3)
          CFI (cfiCond68) R14 Frame(CFA_Y, -2)
          CFI (cfiCond68) R15 Frame(CFA_Y, -1)
          CFI (cfiCond68) CFA_SP SP+4
          CFI (cfiCond68) CFA_Y Y+22
          CFI Block cfiCond69 Using cfiCommon0
          CFI (cfiCond69) Function ??getRTCDateTimeDay
          CFI (cfiCond69) Conditional ??CrossCallReturnLabel_19
          CFI (cfiCond69) R24 Frame(CFA_Y, -16)
          CFI (cfiCond69) R25 Frame(CFA_Y, -15)
          CFI (cfiCond69) R26 Frame(CFA_Y, -14)
          CFI (cfiCond69) R27 Frame(CFA_Y, -13)
          CFI (cfiCond69) R4 Frame(CFA_Y, -12)
          CFI (cfiCond69) R5 Frame(CFA_Y, -11)
          CFI (cfiCond69) R6 Frame(CFA_Y, -10)
          CFI (cfiCond69) R7 Frame(CFA_Y, -9)
          CFI (cfiCond69) R8 Frame(CFA_Y, -8)
          CFI (cfiCond69) R9 Frame(CFA_Y, -7)
          CFI (cfiCond69) R10 Frame(CFA_Y, -6)
          CFI (cfiCond69) R11 Frame(CFA_Y, -5)
          CFI (cfiCond69) R12 Frame(CFA_Y, -4)
          CFI (cfiCond69) R13 Frame(CFA_Y, -3)
          CFI (cfiCond69) R14 Frame(CFA_Y, -2)
          CFI (cfiCond69) R15 Frame(CFA_Y, -1)
          CFI (cfiCond69) CFA_SP SP+4
          CFI (cfiCond69) CFA_Y Y+22
          CFI Block cfiPicker70 Using cfiCommon1
          CFI (cfiPicker70) NoFunction
          CFI (cfiPicker70) Picker
        ADD     R17, R0
        ADC     R18, R1
        ADC     R19, R20
        RET
          CFI EndBlock cfiCond67
          CFI EndBlock cfiCond68
          CFI EndBlock cfiCond69
          CFI EndBlock cfiPicker70

        RSEG CODE:CODE:NOROOT(1)
?Subroutine14:
          CFI Block cfiCond71 Using cfiCommon0
          CFI Function ??getRTCDateTimeDay
          CFI Conditional ??CrossCallReturnLabel_196
          CFI R24 Frame(CFA_Y, -16)
          CFI R25 Frame(CFA_Y, -15)
          CFI R26 Frame(CFA_Y, -14)
          CFI R27 Frame(CFA_Y, -13)
          CFI R4 Frame(CFA_Y, -12)
          CFI R5 Frame(CFA_Y, -11)
          CFI R6 Frame(CFA_Y, -10)
          CFI R7 Frame(CFA_Y, -9)
          CFI R8 Frame(CFA_Y, -8)
          CFI R9 Frame(CFA_Y, -7)
          CFI R10 Frame(CFA_Y, -6)
          CFI R11 Frame(CFA_Y, -5)
          CFI R12 Frame(CFA_Y, -4)
          CFI R13 Frame(CFA_Y, -3)
          CFI R14 Frame(CFA_Y, -2)
          CFI R15 Frame(CFA_Y, -1)
          CFI CFA_SP SP+4
          CFI CFA_Y Y+22
          CFI Block cfiCond72 Using cfiCommon0
          CFI (cfiCond72) Function ??getRTCDateTimeDay
          CFI (cfiCond72) Conditional ??CrossCallReturnLabel_197
          CFI (cfiCond72) R24 Frame(CFA_Y, -16)
          CFI (cfiCond72) R25 Frame(CFA_Y, -15)
          CFI (cfiCond72) R26 Frame(CFA_Y, -14)
          CFI (cfiCond72) R27 Frame(CFA_Y, -13)
          CFI (cfiCond72) R4 Frame(CFA_Y, -12)
          CFI (cfiCond72) R5 Frame(CFA_Y, -11)
          CFI (cfiCond72) R6 Frame(CFA_Y, -10)
          CFI (cfiCond72) R7 Frame(CFA_Y, -9)
          CFI (cfiCond72) R8 Frame(CFA_Y, -8)
          CFI (cfiCond72) R9 Frame(CFA_Y, -7)
          CFI (cfiCond72) R10 Frame(CFA_Y, -6)
          CFI (cfiCond72) R11 Frame(CFA_Y, -5)
          CFI (cfiCond72) R12 Frame(CFA_Y, -4)
          CFI (cfiCond72) R13 Frame(CFA_Y, -3)
          CFI (cfiCond72) R14 Frame(CFA_Y, -2)
          CFI (cfiCond72) R15 Frame(CFA_Y, -1)
          CFI (cfiCond72) CFA_SP SP+4
          CFI (cfiCond72) CFA_Y Y+22
          CFI Block cfiPicker73 Using cfiCommon1
          CFI (cfiPicker73) NoFunction
          CFI (cfiPicker73) Picker
        LDI     R23, 0
          CFI EndBlock cfiCond71
          CFI EndBlock cfiCond72
          CFI EndBlock cfiPicker73
        REQUIRE ?Subroutine70
        ;               // Fall through to label ?Subroutine70

        RSEG CODE:CODE:NOROOT(1)
?Subroutine70:
          CFI Block cfiCond74 Using cfiCommon0
          CFI Function ??getPeriodNumDay
          CFI Conditional ??CrossCallReturnLabel_175
          CFI R24 Frame(CFA_Y, -12)
          CFI R25 Frame(CFA_Y, -11)
          CFI R26 Frame(CFA_Y, -10)
          CFI R27 Frame(CFA_Y, -9)
          CFI R4 Frame(CFA_Y, -8)
          CFI R5 Frame(CFA_Y, -7)
          CFI R6 Frame(CFA_Y, -6)
          CFI R7 Frame(CFA_Y, -5)
          CFI R8 Frame(CFA_Y, -4)
          CFI R9 Frame(CFA_Y, -3)
          CFI R10 Frame(CFA_Y, -2)
          CFI R11 Frame(CFA_Y, -1)
          CFI CFA_SP SP+4
          CFI CFA_Y Y+12
          CFI Block cfiCond75 Using cfiCommon0
          CFI (cfiCond75) Function ??getRTCDateTimeDay
          CFI (cfiCond75) Conditional ??CrossCallReturnLabel_176
          CFI (cfiCond75) R24 Frame(CFA_Y, -16)
          CFI (cfiCond75) R25 Frame(CFA_Y, -15)
          CFI (cfiCond75) R26 Frame(CFA_Y, -14)
          CFI (cfiCond75) R27 Frame(CFA_Y, -13)
          CFI (cfiCond75) R4 Frame(CFA_Y, -12)
          CFI (cfiCond75) R5 Frame(CFA_Y, -11)
          CFI (cfiCond75) R6 Frame(CFA_Y, -10)
          CFI (cfiCond75) R7 Frame(CFA_Y, -9)
          CFI (cfiCond75) R8 Frame(CFA_Y, -8)
          CFI (cfiCond75) R9 Frame(CFA_Y, -7)
          CFI (cfiCond75) R10 Frame(CFA_Y, -6)
          CFI (cfiCond75) R11 Frame(CFA_Y, -5)
          CFI (cfiCond75) R12 Frame(CFA_Y, -4)
          CFI (cfiCond75) R13 Frame(CFA_Y, -3)
          CFI (cfiCond75) R14 Frame(CFA_Y, -2)
          CFI (cfiCond75) R15 Frame(CFA_Y, -1)
          CFI (cfiCond75) CFA_SP SP+4
          CFI (cfiCond75) CFA_Y Y+22
          CFI Block cfiCond76 Using cfiCommon0
          CFI (cfiCond76) Function ??getRTCDateTimeDay
          CFI (cfiCond76) Conditional ??CrossCallReturnLabel_174
          CFI (cfiCond76) R24 Frame(CFA_Y, -16)
          CFI (cfiCond76) R25 Frame(CFA_Y, -15)
          CFI (cfiCond76) R26 Frame(CFA_Y, -14)
          CFI (cfiCond76) R27 Frame(CFA_Y, -13)
          CFI (cfiCond76) R4 Frame(CFA_Y, -12)
          CFI (cfiCond76) R5 Frame(CFA_Y, -11)
          CFI (cfiCond76) R6 Frame(CFA_Y, -10)
          CFI (cfiCond76) R7 Frame(CFA_Y, -9)
          CFI (cfiCond76) R8 Frame(CFA_Y, -8)
          CFI (cfiCond76) R9 Frame(CFA_Y, -7)
          CFI (cfiCond76) R10 Frame(CFA_Y, -6)
          CFI (cfiCond76) R11 Frame(CFA_Y, -5)
          CFI (cfiCond76) R12 Frame(CFA_Y, -4)
          CFI (cfiCond76) R13 Frame(CFA_Y, -3)
          CFI (cfiCond76) R14 Frame(CFA_Y, -2)
          CFI (cfiCond76) R15 Frame(CFA_Y, -1)
          CFI (cfiCond76) CFA_SP SP+4
          CFI (cfiCond76) CFA_Y Y+22
          CFI Block cfiCond77 Using cfiCommon0
          CFI (cfiCond77) Function ??getRTCDateTimeDay
          CFI (cfiCond77) Conditional ??CrossCallReturnLabel_196
          CFI (cfiCond77) R24 Frame(CFA_Y, -16)
          CFI (cfiCond77) R25 Frame(CFA_Y, -15)
          CFI (cfiCond77) R26 Frame(CFA_Y, -14)
          CFI (cfiCond77) R27 Frame(CFA_Y, -13)
          CFI (cfiCond77) R4 Frame(CFA_Y, -12)
          CFI (cfiCond77) R5 Frame(CFA_Y, -11)
          CFI (cfiCond77) R6 Frame(CFA_Y, -10)
          CFI (cfiCond77) R7 Frame(CFA_Y, -9)
          CFI (cfiCond77) R8 Frame(CFA_Y, -8)
          CFI (cfiCond77) R9 Frame(CFA_Y, -7)
          CFI (cfiCond77) R10 Frame(CFA_Y, -6)
          CFI (cfiCond77) R11 Frame(CFA_Y, -5)
          CFI (cfiCond77) R12 Frame(CFA_Y, -4)
          CFI (cfiCond77) R13 Frame(CFA_Y, -3)
          CFI (cfiCond77) R14 Frame(CFA_Y, -2)
          CFI (cfiCond77) R15 Frame(CFA_Y, -1)
          CFI (cfiCond77) CFA_SP SP+4
          CFI (cfiCond77) CFA_Y Y+22
          CFI Block cfiCond78 Using cfiCommon0
          CFI (cfiCond78) Function ??getRTCDateTimeDay
          CFI (cfiCond78) Conditional ??CrossCallReturnLabel_197
          CFI (cfiCond78) R24 Frame(CFA_Y, -16)
          CFI (cfiCond78) R25 Frame(CFA_Y, -15)
          CFI (cfiCond78) R26 Frame(CFA_Y, -14)
          CFI (cfiCond78) R27 Frame(CFA_Y, -13)
          CFI (cfiCond78) R4 Frame(CFA_Y, -12)
          CFI (cfiCond78) R5 Frame(CFA_Y, -11)
          CFI (cfiCond78) R6 Frame(CFA_Y, -10)
          CFI (cfiCond78) R7 Frame(CFA_Y, -9)
          CFI (cfiCond78) R8 Frame(CFA_Y, -8)
          CFI (cfiCond78) R9 Frame(CFA_Y, -7)
          CFI (cfiCond78) R10 Frame(CFA_Y, -6)
          CFI (cfiCond78) R11 Frame(CFA_Y, -5)
          CFI (cfiCond78) R12 Frame(CFA_Y, -4)
          CFI (cfiCond78) R13 Frame(CFA_Y, -3)
          CFI (cfiCond78) R14 Frame(CFA_Y, -2)
          CFI (cfiCond78) R15 Frame(CFA_Y, -1)
          CFI (cfiCond78) CFA_SP SP+4
          CFI (cfiCond78) CFA_Y Y+22
          CFI Block cfiCond79 Using cfiCommon0
          CFI (cfiCond79) Function ??getPeriodNumDay
          CFI (cfiCond79) Conditional ??CrossCallReturnLabel_192
          CFI (cfiCond79) R24 Frame(CFA_Y, -12)
          CFI (cfiCond79) R25 Frame(CFA_Y, -11)
          CFI (cfiCond79) R26 Frame(CFA_Y, -10)
          CFI (cfiCond79) R27 Frame(CFA_Y, -9)
          CFI (cfiCond79) R4 Frame(CFA_Y, -8)
          CFI (cfiCond79) R5 Frame(CFA_Y, -7)
          CFI (cfiCond79) R6 Frame(CFA_Y, -6)
          CFI (cfiCond79) R7 Frame(CFA_Y, -5)
          CFI (cfiCond79) R8 Frame(CFA_Y, -4)
          CFI (cfiCond79) R9 Frame(CFA_Y, -3)
          CFI (cfiCond79) R10 Frame(CFA_Y, -2)
          CFI (cfiCond79) R11 Frame(CFA_Y, -1)
          CFI (cfiCond79) CFA_SP SP+4
          CFI (cfiCond79) CFA_Y Y+12
          CFI Block cfiCond80 Using cfiCommon0
          CFI (cfiCond80) Function ??getRTCDateTimeDay
          CFI (cfiCond80) Conditional ??CrossCallReturnLabel_193
          CFI (cfiCond80) R24 Frame(CFA_Y, -16)
          CFI (cfiCond80) R25 Frame(CFA_Y, -15)
          CFI (cfiCond80) R26 Frame(CFA_Y, -14)
          CFI (cfiCond80) R27 Frame(CFA_Y, -13)
          CFI (cfiCond80) R4 Frame(CFA_Y, -12)
          CFI (cfiCond80) R5 Frame(CFA_Y, -11)
          CFI (cfiCond80) R6 Frame(CFA_Y, -10)
          CFI (cfiCond80) R7 Frame(CFA_Y, -9)
          CFI (cfiCond80) R8 Frame(CFA_Y, -8)
          CFI (cfiCond80) R9 Frame(CFA_Y, -7)
          CFI (cfiCond80) R10 Frame(CFA_Y, -6)
          CFI (cfiCond80) R11 Frame(CFA_Y, -5)
          CFI (cfiCond80) R12 Frame(CFA_Y, -4)
          CFI (cfiCond80) R13 Frame(CFA_Y, -3)
          CFI (cfiCond80) R14 Frame(CFA_Y, -2)
          CFI (cfiCond80) R15 Frame(CFA_Y, -1)
          CFI (cfiCond80) CFA_SP SP+4
          CFI (cfiCond80) CFA_Y Y+22
          CFI Block cfiCond81 Using cfiCommon0
          CFI (cfiCond81) Function ??getRTCDateTimeDay
          CFI (cfiCond81) Conditional ??CrossCallReturnLabel_194
          CFI (cfiCond81) R24 Frame(CFA_Y, -16)
          CFI (cfiCond81) R25 Frame(CFA_Y, -15)
          CFI (cfiCond81) R26 Frame(CFA_Y, -14)
          CFI (cfiCond81) R27 Frame(CFA_Y, -13)
          CFI (cfiCond81) R4 Frame(CFA_Y, -12)
          CFI (cfiCond81) R5 Frame(CFA_Y, -11)
          CFI (cfiCond81) R6 Frame(CFA_Y, -10)
          CFI (cfiCond81) R7 Frame(CFA_Y, -9)
          CFI (cfiCond81) R8 Frame(CFA_Y, -8)
          CFI (cfiCond81) R9 Frame(CFA_Y, -7)
          CFI (cfiCond81) R10 Frame(CFA_Y, -6)
          CFI (cfiCond81) R11 Frame(CFA_Y, -5)
          CFI (cfiCond81) R12 Frame(CFA_Y, -4)
          CFI (cfiCond81) R13 Frame(CFA_Y, -3)
          CFI (cfiCond81) R14 Frame(CFA_Y, -2)
          CFI (cfiCond81) R15 Frame(CFA_Y, -1)
          CFI (cfiCond81) CFA_SP SP+4
          CFI (cfiCond81) CFA_Y Y+22
          CFI Block cfiCond82 Using cfiCommon0
          CFI (cfiCond82) Function ??getCurPeriodsNum
          CFI (cfiCond82) Conditional ??CrossCallReturnLabel_195
          CFI (cfiCond82) R24 Frame(CFA_Y, -12)
          CFI (cfiCond82) R25 Frame(CFA_Y, -11)
          CFI (cfiCond82) R26 Frame(CFA_Y, -10)
          CFI (cfiCond82) R27 Frame(CFA_Y, -9)
          CFI (cfiCond82) R4 Frame(CFA_Y, -8)
          CFI (cfiCond82) R5 Frame(CFA_Y, -7)
          CFI (cfiCond82) R6 Frame(CFA_Y, -6)
          CFI (cfiCond82) R7 Frame(CFA_Y, -5)
          CFI (cfiCond82) R8 Frame(CFA_Y, -4)
          CFI (cfiCond82) R9 Frame(CFA_Y, -3)
          CFI (cfiCond82) R10 Frame(CFA_Y, -2)
          CFI (cfiCond82) R11 Frame(CFA_Y, -1)
          CFI (cfiCond82) CFA_SP SP+4
          CFI (cfiCond82) CFA_Y Y+12
          CFI Block cfiCond83 Using cfiCommon0
          CFI (cfiCond83) Function ??getRTCDateTimeHour
          CFI (cfiCond83) Conditional ??CrossCallReturnLabel_181
          CFI (cfiCond83) R24 Frame(CFA_Y, -6)
          CFI (cfiCond83) R25 Frame(CFA_Y, -5)
          CFI (cfiCond83) R26 Frame(CFA_Y, -4)
          CFI (cfiCond83) R27 Frame(CFA_Y, -3)
          CFI (cfiCond83) R4 Frame(CFA_Y, -2)
          CFI (cfiCond83) R5 Frame(CFA_Y, -1)
          CFI (cfiCond83) CFA_SP SP+4
          CFI (cfiCond83) CFA_Y Y+6
          CFI Block cfiCond84 Using cfiCommon0
          CFI (cfiCond84) Function ??getRTCDateTimeHour
          CFI (cfiCond84) Conditional ??CrossCallReturnLabel_182
          CFI (cfiCond84) R24 Frame(CFA_Y, -6)
          CFI (cfiCond84) R25 Frame(CFA_Y, -5)
          CFI (cfiCond84) R26 Frame(CFA_Y, -4)
          CFI (cfiCond84) R27 Frame(CFA_Y, -3)
          CFI (cfiCond84) R4 Frame(CFA_Y, -2)
          CFI (cfiCond84) R5 Frame(CFA_Y, -1)
          CFI (cfiCond84) CFA_SP SP+4
          CFI (cfiCond84) CFA_Y Y+6
          CFI Block cfiCond85 Using cfiCommon0
          CFI (cfiCond85) Function ??getPeriodNumDay
          CFI (cfiCond85) Conditional ??CrossCallReturnLabel_180
          CFI (cfiCond85) R24 Frame(CFA_Y, -12)
          CFI (cfiCond85) R25 Frame(CFA_Y, -11)
          CFI (cfiCond85) R26 Frame(CFA_Y, -10)
          CFI (cfiCond85) R27 Frame(CFA_Y, -9)
          CFI (cfiCond85) R4 Frame(CFA_Y, -8)
          CFI (cfiCond85) R5 Frame(CFA_Y, -7)
          CFI (cfiCond85) R6 Frame(CFA_Y, -6)
          CFI (cfiCond85) R7 Frame(CFA_Y, -5)
          CFI (cfiCond85) R8 Frame(CFA_Y, -4)
          CFI (cfiCond85) R9 Frame(CFA_Y, -3)
          CFI (cfiCond85) R10 Frame(CFA_Y, -2)
          CFI (cfiCond85) R11 Frame(CFA_Y, -1)
          CFI (cfiCond85) CFA_SP SP+4
          CFI (cfiCond85) CFA_Y Y+12
          CFI Block cfiPicker86 Using cfiCommon1
          CFI (cfiPicker86) NoFunction
          CFI (cfiPicker86) Picker
        JMP     ?UL_DIVMOD_L03
          CFI EndBlock cfiCond74
          CFI EndBlock cfiCond75
          CFI EndBlock cfiCond76
          CFI EndBlock cfiCond77
          CFI EndBlock cfiCond78
          CFI EndBlock cfiCond79
          CFI EndBlock cfiCond80
          CFI EndBlock cfiCond81
          CFI EndBlock cfiCond82
          CFI EndBlock cfiCond83
          CFI EndBlock cfiCond84
          CFI EndBlock cfiCond85
          CFI EndBlock cfiPicker86

        RSEG CODE:CODE:NOROOT(1)
?Subroutine13:
          CFI Block cfiCond87 Using cfiCommon0
          CFI Function ??getRTCDateTimeDay
          CFI Conditional ??CrossCallReturnLabel_14
          CFI R24 Frame(CFA_Y, -16)
          CFI R25 Frame(CFA_Y, -15)
          CFI R26 Frame(CFA_Y, -14)
          CFI R27 Frame(CFA_Y, -13)
          CFI R4 Frame(CFA_Y, -12)
          CFI R5 Frame(CFA_Y, -11)
          CFI R6 Frame(CFA_Y, -10)
          CFI R7 Frame(CFA_Y, -9)
          CFI R8 Frame(CFA_Y, -8)
          CFI R9 Frame(CFA_Y, -7)
          CFI R10 Frame(CFA_Y, -6)
          CFI R11 Frame(CFA_Y, -5)
          CFI R12 Frame(CFA_Y, -4)
          CFI R13 Frame(CFA_Y, -3)
          CFI R14 Frame(CFA_Y, -2)
          CFI R15 Frame(CFA_Y, -1)
          CFI CFA_SP SP+4
          CFI CFA_Y Y+22
          CFI Block cfiCond88 Using cfiCommon0
          CFI (cfiCond88) Function ??getRTCDateTimeDay
          CFI (cfiCond88) Conditional ??CrossCallReturnLabel_15
          CFI (cfiCond88) R24 Frame(CFA_Y, -16)
          CFI (cfiCond88) R25 Frame(CFA_Y, -15)
          CFI (cfiCond88) R26 Frame(CFA_Y, -14)
          CFI (cfiCond88) R27 Frame(CFA_Y, -13)
          CFI (cfiCond88) R4 Frame(CFA_Y, -12)
          CFI (cfiCond88) R5 Frame(CFA_Y, -11)
          CFI (cfiCond88) R6 Frame(CFA_Y, -10)
          CFI (cfiCond88) R7 Frame(CFA_Y, -9)
          CFI (cfiCond88) R8 Frame(CFA_Y, -8)
          CFI (cfiCond88) R9 Frame(CFA_Y, -7)
          CFI (cfiCond88) R10 Frame(CFA_Y, -6)
          CFI (cfiCond88) R11 Frame(CFA_Y, -5)
          CFI (cfiCond88) R12 Frame(CFA_Y, -4)
          CFI (cfiCond88) R13 Frame(CFA_Y, -3)
          CFI (cfiCond88) R14 Frame(CFA_Y, -2)
          CFI (cfiCond88) R15 Frame(CFA_Y, -1)
          CFI (cfiCond88) CFA_SP SP+4
          CFI (cfiCond88) CFA_Y Y+22
          CFI Block cfiCond89 Using cfiCommon0
          CFI (cfiCond89) Function ??getRTCDateTimeDay
          CFI (cfiCond89) Conditional ??CrossCallReturnLabel_16
          CFI (cfiCond89) R24 Frame(CFA_Y, -16)
          CFI (cfiCond89) R25 Frame(CFA_Y, -15)
          CFI (cfiCond89) R26 Frame(CFA_Y, -14)
          CFI (cfiCond89) R27 Frame(CFA_Y, -13)
          CFI (cfiCond89) R4 Frame(CFA_Y, -12)
          CFI (cfiCond89) R5 Frame(CFA_Y, -11)
          CFI (cfiCond89) R6 Frame(CFA_Y, -10)
          CFI (cfiCond89) R7 Frame(CFA_Y, -9)
          CFI (cfiCond89) R8 Frame(CFA_Y, -8)
          CFI (cfiCond89) R9 Frame(CFA_Y, -7)
          CFI (cfiCond89) R10 Frame(CFA_Y, -6)
          CFI (cfiCond89) R11 Frame(CFA_Y, -5)
          CFI (cfiCond89) R12 Frame(CFA_Y, -4)
          CFI (cfiCond89) R13 Frame(CFA_Y, -3)
          CFI (cfiCond89) R14 Frame(CFA_Y, -2)
          CFI (cfiCond89) R15 Frame(CFA_Y, -1)
          CFI (cfiCond89) CFA_SP SP+4
          CFI (cfiCond89) CFA_Y Y+22
          CFI Block cfiPicker90 Using cfiCommon1
          CFI (cfiPicker90) NoFunction
          CFI (cfiPicker90) Picker
        MOV     R17, R0
        ADD     R18, R1
        ADC     R19, R20
        RET
          CFI EndBlock cfiCond87
          CFI EndBlock cfiCond88
          CFI EndBlock cfiCond89
          CFI EndBlock cfiPicker90

        RSEG CODE:CODE:NOROOT(1)
?Subroutine9:
          CFI Block cfiCond91 Using cfiCommon0
          CFI Function ??getRTCDateTimeDay
          CFI Conditional ??CrossCallReturnLabel_116
          CFI R24 Frame(CFA_Y, -16)
          CFI R25 Frame(CFA_Y, -15)
          CFI R26 Frame(CFA_Y, -14)
          CFI R27 Frame(CFA_Y, -13)
          CFI R4 Frame(CFA_Y, -12)
          CFI R5 Frame(CFA_Y, -11)
          CFI R6 Frame(CFA_Y, -10)
          CFI R7 Frame(CFA_Y, -9)
          CFI R8 Frame(CFA_Y, -8)
          CFI R9 Frame(CFA_Y, -7)
          CFI R10 Frame(CFA_Y, -6)
          CFI R11 Frame(CFA_Y, -5)
          CFI R12 Frame(CFA_Y, -4)
          CFI R13 Frame(CFA_Y, -3)
          CFI R14 Frame(CFA_Y, -2)
          CFI R15 Frame(CFA_Y, -1)
          CFI CFA_SP SP+4
          CFI CFA_Y Y+22
          CFI Block cfiCond92 Using cfiCommon0
          CFI (cfiCond92) Function ??getRTCDateTimeDay
          CFI (cfiCond92) Conditional ??CrossCallReturnLabel_117
          CFI (cfiCond92) R24 Frame(CFA_Y, -16)
          CFI (cfiCond92) R25 Frame(CFA_Y, -15)
          CFI (cfiCond92) R26 Frame(CFA_Y, -14)
          CFI (cfiCond92) R27 Frame(CFA_Y, -13)
          CFI (cfiCond92) R4 Frame(CFA_Y, -12)
          CFI (cfiCond92) R5 Frame(CFA_Y, -11)
          CFI (cfiCond92) R6 Frame(CFA_Y, -10)
          CFI (cfiCond92) R7 Frame(CFA_Y, -9)
          CFI (cfiCond92) R8 Frame(CFA_Y, -8)
          CFI (cfiCond92) R9 Frame(CFA_Y, -7)
          CFI (cfiCond92) R10 Frame(CFA_Y, -6)
          CFI (cfiCond92) R11 Frame(CFA_Y, -5)
          CFI (cfiCond92) R12 Frame(CFA_Y, -4)
          CFI (cfiCond92) R13 Frame(CFA_Y, -3)
          CFI (cfiCond92) R14 Frame(CFA_Y, -2)
          CFI (cfiCond92) R15 Frame(CFA_Y, -1)
          CFI (cfiCond92) CFA_SP SP+4
          CFI (cfiCond92) CFA_Y Y+22
          CFI Block cfiPicker93 Using cfiCommon1
          CFI (cfiPicker93) NoFunction
          CFI (cfiPicker93) Picker
        RCALL   ?Subroutine66
??CrossCallReturnLabel_179:
        SUBI    R16, 254
          CFI EndBlock cfiCond91
          CFI EndBlock cfiCond92
          CFI EndBlock cfiPicker93
        REQUIRE ?Subroutine76
        ;               // Fall through to label ?Subroutine76

        RSEG CODE:CODE:NOROOT(1)
?Subroutine76:
          CFI Block cfiCond94 Using cfiCommon0
          CFI Function ??getRTCDateTimeDay
          CFI Conditional ??CrossCallReturnLabel_24
          CFI R24 Frame(CFA_Y, -16)
          CFI R25 Frame(CFA_Y, -15)
          CFI R26 Frame(CFA_Y, -14)
          CFI R27 Frame(CFA_Y, -13)
          CFI R4 Frame(CFA_Y, -12)
          CFI R5 Frame(CFA_Y, -11)
          CFI R6 Frame(CFA_Y, -10)
          CFI R7 Frame(CFA_Y, -9)
          CFI R8 Frame(CFA_Y, -8)
          CFI R9 Frame(CFA_Y, -7)
          CFI R10 Frame(CFA_Y, -6)
          CFI R11 Frame(CFA_Y, -5)
          CFI R12 Frame(CFA_Y, -4)
          CFI R13 Frame(CFA_Y, -3)
          CFI R14 Frame(CFA_Y, -2)
          CFI R15 Frame(CFA_Y, -1)
          CFI CFA_SP SP+4
          CFI CFA_Y Y+22
          CFI Block cfiCond95 Using cfiCommon0
          CFI (cfiCond95) Function ??getRTCDateTimeDay
          CFI (cfiCond95) Conditional ??CrossCallReturnLabel_25
          CFI (cfiCond95) R24 Frame(CFA_Y, -16)
          CFI (cfiCond95) R25 Frame(CFA_Y, -15)
          CFI (cfiCond95) R26 Frame(CFA_Y, -14)
          CFI (cfiCond95) R27 Frame(CFA_Y, -13)
          CFI (cfiCond95) R4 Frame(CFA_Y, -12)
          CFI (cfiCond95) R5 Frame(CFA_Y, -11)
          CFI (cfiCond95) R6 Frame(CFA_Y, -10)
          CFI (cfiCond95) R7 Frame(CFA_Y, -9)
          CFI (cfiCond95) R8 Frame(CFA_Y, -8)
          CFI (cfiCond95) R9 Frame(CFA_Y, -7)
          CFI (cfiCond95) R10 Frame(CFA_Y, -6)
          CFI (cfiCond95) R11 Frame(CFA_Y, -5)
          CFI (cfiCond95) R12 Frame(CFA_Y, -4)
          CFI (cfiCond95) R13 Frame(CFA_Y, -3)
          CFI (cfiCond95) R14 Frame(CFA_Y, -2)
          CFI (cfiCond95) R15 Frame(CFA_Y, -1)
          CFI (cfiCond95) CFA_SP SP+4
          CFI (cfiCond95) CFA_Y Y+22
          CFI Block cfiCond96 Using cfiCommon0
          CFI (cfiCond96) Function ??getRTCDateTimeDay
          CFI (cfiCond96) Conditional ??CrossCallReturnLabel_116
          CFI (cfiCond96) R24 Frame(CFA_Y, -16)
          CFI (cfiCond96) R25 Frame(CFA_Y, -15)
          CFI (cfiCond96) R26 Frame(CFA_Y, -14)
          CFI (cfiCond96) R27 Frame(CFA_Y, -13)
          CFI (cfiCond96) R4 Frame(CFA_Y, -12)
          CFI (cfiCond96) R5 Frame(CFA_Y, -11)
          CFI (cfiCond96) R6 Frame(CFA_Y, -10)
          CFI (cfiCond96) R7 Frame(CFA_Y, -9)
          CFI (cfiCond96) R8 Frame(CFA_Y, -8)
          CFI (cfiCond96) R9 Frame(CFA_Y, -7)
          CFI (cfiCond96) R10 Frame(CFA_Y, -6)
          CFI (cfiCond96) R11 Frame(CFA_Y, -5)
          CFI (cfiCond96) R12 Frame(CFA_Y, -4)
          CFI (cfiCond96) R13 Frame(CFA_Y, -3)
          CFI (cfiCond96) R14 Frame(CFA_Y, -2)
          CFI (cfiCond96) R15 Frame(CFA_Y, -1)
          CFI (cfiCond96) CFA_SP SP+4
          CFI (cfiCond96) CFA_Y Y+22
          CFI Block cfiCond97 Using cfiCommon0
          CFI (cfiCond97) Function ??getRTCDateTimeDay
          CFI (cfiCond97) Conditional ??CrossCallReturnLabel_117
          CFI (cfiCond97) R24 Frame(CFA_Y, -16)
          CFI (cfiCond97) R25 Frame(CFA_Y, -15)
          CFI (cfiCond97) R26 Frame(CFA_Y, -14)
          CFI (cfiCond97) R27 Frame(CFA_Y, -13)
          CFI (cfiCond97) R4 Frame(CFA_Y, -12)
          CFI (cfiCond97) R5 Frame(CFA_Y, -11)
          CFI (cfiCond97) R6 Frame(CFA_Y, -10)
          CFI (cfiCond97) R7 Frame(CFA_Y, -9)
          CFI (cfiCond97) R8 Frame(CFA_Y, -8)
          CFI (cfiCond97) R9 Frame(CFA_Y, -7)
          CFI (cfiCond97) R10 Frame(CFA_Y, -6)
          CFI (cfiCond97) R11 Frame(CFA_Y, -5)
          CFI (cfiCond97) R12 Frame(CFA_Y, -4)
          CFI (cfiCond97) R13 Frame(CFA_Y, -3)
          CFI (cfiCond97) R14 Frame(CFA_Y, -2)
          CFI (cfiCond97) R15 Frame(CFA_Y, -1)
          CFI (cfiCond97) CFA_SP SP+4
          CFI (cfiCond97) CFA_Y Y+22
          CFI Block cfiCond98 Using cfiCommon0
          CFI (cfiCond98) Function ??operationStatistic
          CFI (cfiCond98) Conditional ??CrossCallReturnLabel_101
          CFI (cfiCond98) R24 Frame(CFA_Y, -4)
          CFI (cfiCond98) R25 Frame(CFA_Y, -3)
          CFI (cfiCond98) R26 Frame(CFA_Y, -2)
          CFI (cfiCond98) R27 Frame(CFA_Y, -1)
          CFI (cfiCond98) CFA_SP SP+4
          CFI (cfiCond98) CFA_Y Y+4
          CFI Block cfiCond99 Using cfiCommon0
          CFI (cfiCond99) Function ??operationStatistic
          CFI (cfiCond99) Conditional ??CrossCallReturnLabel_102
          CFI (cfiCond99) R24 Frame(CFA_Y, -4)
          CFI (cfiCond99) R25 Frame(CFA_Y, -3)
          CFI (cfiCond99) R26 Frame(CFA_Y, -2)
          CFI (cfiCond99) R27 Frame(CFA_Y, -1)
          CFI (cfiCond99) CFA_SP SP+4
          CFI (cfiCond99) CFA_Y Y+4
          CFI Block cfiPicker100 Using cfiCommon1
          CFI (cfiPicker100) NoFunction
          CFI (cfiPicker100) Picker
        SBCI    R17, 255
        SBCI    R18, 255
        SBCI    R19, 255
        RET
          CFI EndBlock cfiCond94
          CFI EndBlock cfiCond95
          CFI EndBlock cfiCond96
          CFI EndBlock cfiCond97
          CFI EndBlock cfiCond98
          CFI EndBlock cfiCond99
          CFI EndBlock cfiPicker100

        RSEG CODE:CODE:NOROOT(1)
?Subroutine66:
          CFI Block cfiCond101 Using cfiCommon0
          CFI Function ??getRTCDateTimeDay
          CFI Conditional ??CrossCallReturnLabel_179, ??CrossCallReturnLabel_116
          CFI R24 Frame(CFA_Y, -16)
          CFI R25 Frame(CFA_Y, -15)
          CFI R26 Frame(CFA_Y, -14)
          CFI R27 Frame(CFA_Y, -13)
          CFI R4 Frame(CFA_Y, -12)
          CFI R5 Frame(CFA_Y, -11)
          CFI R6 Frame(CFA_Y, -10)
          CFI R7 Frame(CFA_Y, -9)
          CFI R8 Frame(CFA_Y, -8)
          CFI R9 Frame(CFA_Y, -7)
          CFI R10 Frame(CFA_Y, -6)
          CFI R11 Frame(CFA_Y, -5)
          CFI R12 Frame(CFA_Y, -4)
          CFI R13 Frame(CFA_Y, -3)
          CFI R14 Frame(CFA_Y, -2)
          CFI R15 Frame(CFA_Y, -1)
          CFI CFA_SP SP+6
          CFI CFA_Y Y+22
          CFI Block cfiCond102 Using cfiCommon0
          CFI (cfiCond102) Function ??getRTCDateTimeDay
          CFI (cfiCond102) Conditional ??CrossCallReturnLabel_179, ??CrossCallReturnLabel_117
          CFI (cfiCond102) R24 Frame(CFA_Y, -16)
          CFI (cfiCond102) R25 Frame(CFA_Y, -15)
          CFI (cfiCond102) R26 Frame(CFA_Y, -14)
          CFI (cfiCond102) R27 Frame(CFA_Y, -13)
          CFI (cfiCond102) R4 Frame(CFA_Y, -12)
          CFI (cfiCond102) R5 Frame(CFA_Y, -11)
          CFI (cfiCond102) R6 Frame(CFA_Y, -10)
          CFI (cfiCond102) R7 Frame(CFA_Y, -9)
          CFI (cfiCond102) R8 Frame(CFA_Y, -8)
          CFI (cfiCond102) R9 Frame(CFA_Y, -7)
          CFI (cfiCond102) R10 Frame(CFA_Y, -6)
          CFI (cfiCond102) R11 Frame(CFA_Y, -5)
          CFI (cfiCond102) R12 Frame(CFA_Y, -4)
          CFI (cfiCond102) R13 Frame(CFA_Y, -3)
          CFI (cfiCond102) R14 Frame(CFA_Y, -2)
          CFI (cfiCond102) R15 Frame(CFA_Y, -1)
          CFI (cfiCond102) CFA_SP SP+6
          CFI (cfiCond102) CFA_Y Y+22
          CFI Block cfiCond103 Using cfiCommon0
          CFI (cfiCond103) Function ??getRTCDateTimeDay
          CFI (cfiCond103) Conditional ??CrossCallReturnLabel_178, ??CrossCallReturnLabel_7
          CFI (cfiCond103) R24 Frame(CFA_Y, -16)
          CFI (cfiCond103) R25 Frame(CFA_Y, -15)
          CFI (cfiCond103) R26 Frame(CFA_Y, -14)
          CFI (cfiCond103) R27 Frame(CFA_Y, -13)
          CFI (cfiCond103) R4 Frame(CFA_Y, -12)
          CFI (cfiCond103) R5 Frame(CFA_Y, -11)
          CFI (cfiCond103) R6 Frame(CFA_Y, -10)
          CFI (cfiCond103) R7 Frame(CFA_Y, -9)
          CFI (cfiCond103) R8 Frame(CFA_Y, -8)
          CFI (cfiCond103) R9 Frame(CFA_Y, -7)
          CFI (cfiCond103) R10 Frame(CFA_Y, -6)
          CFI (cfiCond103) R11 Frame(CFA_Y, -5)
          CFI (cfiCond103) R12 Frame(CFA_Y, -4)
          CFI (cfiCond103) R13 Frame(CFA_Y, -3)
          CFI (cfiCond103) R14 Frame(CFA_Y, -2)
          CFI (cfiCond103) R15 Frame(CFA_Y, -1)
          CFI (cfiCond103) CFA_SP SP+6
          CFI (cfiCond103) CFA_Y Y+22
          CFI Block cfiCond104 Using cfiCommon0
          CFI (cfiCond104) Function ??getRTCDateTimeDay
          CFI (cfiCond104) Conditional ??CrossCallReturnLabel_178, ??CrossCallReturnLabel_8
          CFI (cfiCond104) R24 Frame(CFA_Y, -16)
          CFI (cfiCond104) R25 Frame(CFA_Y, -15)
          CFI (cfiCond104) R26 Frame(CFA_Y, -14)
          CFI (cfiCond104) R27 Frame(CFA_Y, -13)
          CFI (cfiCond104) R4 Frame(CFA_Y, -12)
          CFI (cfiCond104) R5 Frame(CFA_Y, -11)
          CFI (cfiCond104) R6 Frame(CFA_Y, -10)
          CFI (cfiCond104) R7 Frame(CFA_Y, -9)
          CFI (cfiCond104) R8 Frame(CFA_Y, -8)
          CFI (cfiCond104) R9 Frame(CFA_Y, -7)
          CFI (cfiCond104) R10 Frame(CFA_Y, -6)
          CFI (cfiCond104) R11 Frame(CFA_Y, -5)
          CFI (cfiCond104) R12 Frame(CFA_Y, -4)
          CFI (cfiCond104) R13 Frame(CFA_Y, -3)
          CFI (cfiCond104) R14 Frame(CFA_Y, -2)
          CFI (cfiCond104) R15 Frame(CFA_Y, -1)
          CFI (cfiCond104) CFA_SP SP+6
          CFI (cfiCond104) CFA_Y Y+22
          CFI Block cfiPicker105 Using cfiCommon1
          CFI (cfiPicker105) NoFunction
          CFI (cfiPicker105) Picker
        MOV     R16, R0
          CFI EndBlock cfiCond101
          CFI EndBlock cfiCond102
          CFI EndBlock cfiCond103
          CFI EndBlock cfiCond104
          CFI EndBlock cfiPicker105
        REQUIRE ??Subroutine99_0
        ;               // Fall through to label ??Subroutine99_0

        RSEG CODE:CODE:NOROOT(1)
??Subroutine99_0:
          CFI Block cfiCond106 Using cfiCommon0
          CFI Function ??getPeriodNumDay
          CFI Conditional ??CrossCallReturnLabel_177
          CFI R24 Frame(CFA_Y, -12)
          CFI R25 Frame(CFA_Y, -11)
          CFI R26 Frame(CFA_Y, -10)
          CFI R27 Frame(CFA_Y, -9)
          CFI R4 Frame(CFA_Y, -8)
          CFI R5 Frame(CFA_Y, -7)
          CFI R6 Frame(CFA_Y, -6)
          CFI R7 Frame(CFA_Y, -5)
          CFI R8 Frame(CFA_Y, -4)
          CFI R9 Frame(CFA_Y, -3)
          CFI R10 Frame(CFA_Y, -2)
          CFI R11 Frame(CFA_Y, -1)
          CFI CFA_SP SP+4
          CFI CFA_Y Y+12
          CFI Block cfiCond107 Using cfiCommon0
          CFI (cfiCond107) Function ??getRTCDateTimeDay
          CFI (cfiCond107) Conditional ??CrossCallReturnLabel_179, ??CrossCallReturnLabel_116
          CFI (cfiCond107) R24 Frame(CFA_Y, -16)
          CFI (cfiCond107) R25 Frame(CFA_Y, -15)
          CFI (cfiCond107) R26 Frame(CFA_Y, -14)
          CFI (cfiCond107) R27 Frame(CFA_Y, -13)
          CFI (cfiCond107) R4 Frame(CFA_Y, -12)
          CFI (cfiCond107) R5 Frame(CFA_Y, -11)
          CFI (cfiCond107) R6 Frame(CFA_Y, -10)
          CFI (cfiCond107) R7 Frame(CFA_Y, -9)
          CFI (cfiCond107) R8 Frame(CFA_Y, -8)
          CFI (cfiCond107) R9 Frame(CFA_Y, -7)
          CFI (cfiCond107) R10 Frame(CFA_Y, -6)
          CFI (cfiCond107) R11 Frame(CFA_Y, -5)
          CFI (cfiCond107) R12 Frame(CFA_Y, -4)
          CFI (cfiCond107) R13 Frame(CFA_Y, -3)
          CFI (cfiCond107) R14 Frame(CFA_Y, -2)
          CFI (cfiCond107) R15 Frame(CFA_Y, -1)
          CFI (cfiCond107) CFA_SP SP+6
          CFI (cfiCond107) CFA_Y Y+22
          CFI Block cfiCond108 Using cfiCommon0
          CFI (cfiCond108) Function ??getRTCDateTimeDay
          CFI (cfiCond108) Conditional ??CrossCallReturnLabel_179, ??CrossCallReturnLabel_117
          CFI (cfiCond108) R24 Frame(CFA_Y, -16)
          CFI (cfiCond108) R25 Frame(CFA_Y, -15)
          CFI (cfiCond108) R26 Frame(CFA_Y, -14)
          CFI (cfiCond108) R27 Frame(CFA_Y, -13)
          CFI (cfiCond108) R4 Frame(CFA_Y, -12)
          CFI (cfiCond108) R5 Frame(CFA_Y, -11)
          CFI (cfiCond108) R6 Frame(CFA_Y, -10)
          CFI (cfiCond108) R7 Frame(CFA_Y, -9)
          CFI (cfiCond108) R8 Frame(CFA_Y, -8)
          CFI (cfiCond108) R9 Frame(CFA_Y, -7)
          CFI (cfiCond108) R10 Frame(CFA_Y, -6)
          CFI (cfiCond108) R11 Frame(CFA_Y, -5)
          CFI (cfiCond108) R12 Frame(CFA_Y, -4)
          CFI (cfiCond108) R13 Frame(CFA_Y, -3)
          CFI (cfiCond108) R14 Frame(CFA_Y, -2)
          CFI (cfiCond108) R15 Frame(CFA_Y, -1)
          CFI (cfiCond108) CFA_SP SP+6
          CFI (cfiCond108) CFA_Y Y+22
          CFI Block cfiCond109 Using cfiCommon0
          CFI (cfiCond109) Function ??getRTCDateTimeDay
          CFI (cfiCond109) Conditional ??CrossCallReturnLabel_178, ??CrossCallReturnLabel_7
          CFI (cfiCond109) R24 Frame(CFA_Y, -16)
          CFI (cfiCond109) R25 Frame(CFA_Y, -15)
          CFI (cfiCond109) R26 Frame(CFA_Y, -14)
          CFI (cfiCond109) R27 Frame(CFA_Y, -13)
          CFI (cfiCond109) R4 Frame(CFA_Y, -12)
          CFI (cfiCond109) R5 Frame(CFA_Y, -11)
          CFI (cfiCond109) R6 Frame(CFA_Y, -10)
          CFI (cfiCond109) R7 Frame(CFA_Y, -9)
          CFI (cfiCond109) R8 Frame(CFA_Y, -8)
          CFI (cfiCond109) R9 Frame(CFA_Y, -7)
          CFI (cfiCond109) R10 Frame(CFA_Y, -6)
          CFI (cfiCond109) R11 Frame(CFA_Y, -5)
          CFI (cfiCond109) R12 Frame(CFA_Y, -4)
          CFI (cfiCond109) R13 Frame(CFA_Y, -3)
          CFI (cfiCond109) R14 Frame(CFA_Y, -2)
          CFI (cfiCond109) R15 Frame(CFA_Y, -1)
          CFI (cfiCond109) CFA_SP SP+6
          CFI (cfiCond109) CFA_Y Y+22
          CFI Block cfiCond110 Using cfiCommon0
          CFI (cfiCond110) Function ??getRTCDateTimeDay
          CFI (cfiCond110) Conditional ??CrossCallReturnLabel_178, ??CrossCallReturnLabel_8
          CFI (cfiCond110) R24 Frame(CFA_Y, -16)
          CFI (cfiCond110) R25 Frame(CFA_Y, -15)
          CFI (cfiCond110) R26 Frame(CFA_Y, -14)
          CFI (cfiCond110) R27 Frame(CFA_Y, -13)
          CFI (cfiCond110) R4 Frame(CFA_Y, -12)
          CFI (cfiCond110) R5 Frame(CFA_Y, -11)
          CFI (cfiCond110) R6 Frame(CFA_Y, -10)
          CFI (cfiCond110) R7 Frame(CFA_Y, -9)
          CFI (cfiCond110) R8 Frame(CFA_Y, -8)
          CFI (cfiCond110) R9 Frame(CFA_Y, -7)
          CFI (cfiCond110) R10 Frame(CFA_Y, -6)
          CFI (cfiCond110) R11 Frame(CFA_Y, -5)
          CFI (cfiCond110) R12 Frame(CFA_Y, -4)
          CFI (cfiCond110) R13 Frame(CFA_Y, -3)
          CFI (cfiCond110) R14 Frame(CFA_Y, -2)
          CFI (cfiCond110) R15 Frame(CFA_Y, -1)
          CFI (cfiCond110) CFA_SP SP+6
          CFI (cfiCond110) CFA_Y Y+22
          CFI Block cfiPicker111 Using cfiCommon1
          CFI (cfiPicker111) NoFunction
          CFI (cfiPicker111) Picker
        ADD     R17, R1
        ADC     R18, R20
        ADC     R19, R20
        RET
          CFI EndBlock cfiCond106
          CFI EndBlock cfiCond107
          CFI EndBlock cfiCond108
          CFI EndBlock cfiCond109
          CFI EndBlock cfiCond110
          CFI EndBlock cfiPicker111

        RSEG CODE:CODE:NOROOT(1)
?Subroutine5:
          CFI Block cfiCond112 Using cfiCommon0
          CFI Function ??getRTCDateTimeDay
          CFI Conditional ??CrossCallReturnLabel_7
          CFI R24 Frame(CFA_Y, -16)
          CFI R25 Frame(CFA_Y, -15)
          CFI R26 Frame(CFA_Y, -14)
          CFI R27 Frame(CFA_Y, -13)
          CFI R4 Frame(CFA_Y, -12)
          CFI R5 Frame(CFA_Y, -11)
          CFI R6 Frame(CFA_Y, -10)
          CFI R7 Frame(CFA_Y, -9)
          CFI R8 Frame(CFA_Y, -8)
          CFI R9 Frame(CFA_Y, -7)
          CFI R10 Frame(CFA_Y, -6)
          CFI R11 Frame(CFA_Y, -5)
          CFI R12 Frame(CFA_Y, -4)
          CFI R13 Frame(CFA_Y, -3)
          CFI R14 Frame(CFA_Y, -2)
          CFI R15 Frame(CFA_Y, -1)
          CFI CFA_SP SP+4
          CFI CFA_Y Y+22
          CFI Block cfiCond113 Using cfiCommon0
          CFI (cfiCond113) Function ??getRTCDateTimeDay
          CFI (cfiCond113) Conditional ??CrossCallReturnLabel_8
          CFI (cfiCond113) R24 Frame(CFA_Y, -16)
          CFI (cfiCond113) R25 Frame(CFA_Y, -15)
          CFI (cfiCond113) R26 Frame(CFA_Y, -14)
          CFI (cfiCond113) R27 Frame(CFA_Y, -13)
          CFI (cfiCond113) R4 Frame(CFA_Y, -12)
          CFI (cfiCond113) R5 Frame(CFA_Y, -11)
          CFI (cfiCond113) R6 Frame(CFA_Y, -10)
          CFI (cfiCond113) R7 Frame(CFA_Y, -9)
          CFI (cfiCond113) R8 Frame(CFA_Y, -8)
          CFI (cfiCond113) R9 Frame(CFA_Y, -7)
          CFI (cfiCond113) R10 Frame(CFA_Y, -6)
          CFI (cfiCond113) R11 Frame(CFA_Y, -5)
          CFI (cfiCond113) R12 Frame(CFA_Y, -4)
          CFI (cfiCond113) R13 Frame(CFA_Y, -3)
          CFI (cfiCond113) R14 Frame(CFA_Y, -2)
          CFI (cfiCond113) R15 Frame(CFA_Y, -1)
          CFI (cfiCond113) CFA_SP SP+4
          CFI (cfiCond113) CFA_Y Y+22
          CFI Block cfiPicker114 Using cfiCommon1
          CFI (cfiPicker114) NoFunction
          CFI (cfiPicker114) Picker
        RCALL   ?Subroutine66
??CrossCallReturnLabel_178:
        RCALL   ?Subroutine68
??CrossCallReturnLabel_110:
        RCALL   ?Subroutine68
??CrossCallReturnLabel_111:
        SUB     R24, R16
        SBC     R25, R17
        SBC     R26, R18
        SBC     R27, R19
        RET
          CFI EndBlock cfiCond112
          CFI EndBlock cfiCond113
          CFI EndBlock cfiPicker114

        RSEG CODE:CODE:NOROOT(1)
?Subroutine0:
          CFI Block cfiCond115 Using cfiCommon0
          CFI Function ??getPeriodNumDay
          CFI Conditional ??CrossCallReturnLabel_0
          CFI CFA_SP SP+4
          CFI Block cfiCond116 Using cfiCommon0
          CFI (cfiCond116) Function ??getRTCDateTimeDay
          CFI (cfiCond116) Conditional ??CrossCallReturnLabel_1
          CFI (cfiCond116) R12 Frame(CFA_Y, -4)
          CFI (cfiCond116) R13 Frame(CFA_Y, -3)
          CFI (cfiCond116) R14 Frame(CFA_Y, -2)
          CFI (cfiCond116) R15 Frame(CFA_Y, -1)
          CFI (cfiCond116) CFA_SP SP+4
          CFI (cfiCond116) CFA_Y Y+4
          CFI Block cfiCond117 Using cfiCommon0
          CFI (cfiCond117) Function ??getCurPeriodsNum
          CFI (cfiCond117) Conditional ??CrossCallReturnLabel_2
          CFI (cfiCond117) CFA_SP SP+4
          CFI Block cfiPicker118 Using cfiCommon1
          CFI (cfiPicker118) NoFunction
          CFI (cfiPicker118) Picker
        ST      -Y, R11
          CFI (cfiCond115) R11 Frame(CFA_Y, -1)
          CFI (cfiCond115) CFA_Y Y+1
          CFI (cfiCond116) R11 Frame(CFA_Y, -5)
          CFI (cfiCond116) CFA_Y Y+5
          CFI (cfiCond117) R11 Frame(CFA_Y, -1)
          CFI (cfiCond117) CFA_Y Y+1
          CFI (cfiPicker118) R11 Frame(CFA_Y, -1)
        ST      -Y, R10
          CFI (cfiCond115) R10 Frame(CFA_Y, -2)
          CFI (cfiCond115) CFA_Y Y+2
          CFI (cfiCond116) R10 Frame(CFA_Y, -6)
          CFI (cfiCond116) CFA_Y Y+6
          CFI (cfiCond117) R10 Frame(CFA_Y, -2)
          CFI (cfiCond117) CFA_Y Y+2
          CFI (cfiPicker118) R10 Frame(CFA_Y, -2)
        ST      -Y, R9
          CFI (cfiCond115) R9 Frame(CFA_Y, -3)
          CFI (cfiCond115) CFA_Y Y+3
          CFI (cfiCond116) R9 Frame(CFA_Y, -7)
          CFI (cfiCond116) CFA_Y Y+7
          CFI (cfiCond117) R9 Frame(CFA_Y, -3)
          CFI (cfiCond117) CFA_Y Y+3
          CFI (cfiPicker118) R9 Frame(CFA_Y, -3)
        ST      -Y, R8
          CFI (cfiCond115) R8 Frame(CFA_Y, -4)
          CFI (cfiCond115) CFA_Y Y+4
          CFI (cfiCond116) R8 Frame(CFA_Y, -8)
          CFI (cfiCond116) CFA_Y Y+8
          CFI (cfiCond117) R8 Frame(CFA_Y, -4)
          CFI (cfiCond117) CFA_Y Y+4
          CFI (cfiPicker118) R8 Frame(CFA_Y, -4)
        ST      -Y, R7
          CFI (cfiCond115) R7 Frame(CFA_Y, -5)
          CFI (cfiCond115) CFA_Y Y+5
          CFI (cfiCond116) R7 Frame(CFA_Y, -9)
          CFI (cfiCond116) CFA_Y Y+9
          CFI (cfiCond117) R7 Frame(CFA_Y, -5)
          CFI (cfiCond117) CFA_Y Y+5
          CFI (cfiPicker118) R7 Frame(CFA_Y, -5)
        ST      -Y, R6
          CFI (cfiCond115) R6 Frame(CFA_Y, -6)
          CFI (cfiCond115) CFA_Y Y+6
          CFI (cfiCond116) R6 Frame(CFA_Y, -10)
          CFI (cfiCond116) CFA_Y Y+10
          CFI (cfiCond117) R6 Frame(CFA_Y, -6)
          CFI (cfiCond117) CFA_Y Y+6
          CFI (cfiPicker118) R6 Frame(CFA_Y, -6)
        RJMP    ?Subroutine74
          CFI EndBlock cfiCond115
          CFI EndBlock cfiCond116
          CFI EndBlock cfiCond117
          CFI EndBlock cfiPicker118
//  108 

        RSEG CODE:CODE:NOROOT(1)
//  109     void getRTCDateTimeHour(GLOBAL::RTC::TRTCDateTime* _dateTime, unsigned long _periodNum)
??getRTCDateTimeHour:
          CFI Block cfiBlock119 Using cfiCommon0
          CFI Function ??getRTCDateTimeHour
//  110     {
        FUNCALL ??getRTCDateTimeHour, ??getRTCDateTimeDay
        LOCFRAME CSTACK, 6, STACK
        LOCFRAME RSTACK, 2, STACK
        ARGFRAME RSTACK, 0, STACK
        RCALL   ?Subroutine74
          CFI R24 Frame(CFA_Y, -6)
          CFI R25 Frame(CFA_Y, -5)
          CFI R26 Frame(CFA_Y, -4)
          CFI R27 Frame(CFA_Y, -3)
          CFI R4 Frame(CFA_Y, -2)
          CFI R5 Frame(CFA_Y, -1)
          CFI CFA_Y Y+6
??CrossCallReturnLabel_204:
        REQUIRE ?Register_R4_is_cg_reg
        REQUIRE ?Register_R5_is_cg_reg
        MOVW    R5:R4, R17:R16
        MOVW    R25:R24, R21:R20
        MOVW    R27:R26, R23:R22
//  111       _dateTime->hour = _periodNum % 24;
        RCALL   ?Subroutine6
??CrossCallReturnLabel_181:
        MOVW    R31:R30, R5:R4
        STD     Z+4, R0
//  112 
//  113       getRTCDateTimeDay(_dateTime, _periodNum / 24);
        RCALL   ?Subroutine6
??CrossCallReturnLabel_182:
        MOVW    R21:R20, R17:R16
        MOVW    R23:R22, R19:R18
        MOVW    R17:R16, R5:R4
        RCALL   ??getRTCDateTimeDay
          CFI EndBlock cfiBlock119
//  114     }
        REQUIRE ?Subroutine73
        ;               // Fall through to label ?Subroutine73

        RSEG CODE:CODE:NOROOT(1)
?Subroutine73:
          CFI Block cfiCond120 Using cfiCommon0
          CFI Function ??addCounter
          CFI Conditional ??CrossCallReturnLabel_112
          CFI R24 Frame(CFA_Y, -8)
          CFI R25 Frame(CFA_Y, -7)
          CFI R26 Frame(CFA_Y, -6)
          CFI R27 Frame(CFA_Y, -5)
          CFI R4 Frame(CFA_Y, -4)
          CFI R5 Frame(CFA_Y, -3)
          CFI R6 Frame(CFA_Y, -2)
          CFI R7 Frame(CFA_Y, -1)
          CFI CFA_SP SP+4
          CFI CFA_Y Y+8
          CFI Block cfiCond121 Using cfiCommon0
          CFI (cfiCond121) Function ??getPeriodNumDay
          CFI (cfiCond121) Conditional ??CrossCallReturnLabel_113
          CFI (cfiCond121) R24 Frame(CFA_Y, -12)
          CFI (cfiCond121) R25 Frame(CFA_Y, -11)
          CFI (cfiCond121) R26 Frame(CFA_Y, -10)
          CFI (cfiCond121) R27 Frame(CFA_Y, -9)
          CFI (cfiCond121) R4 Frame(CFA_Y, -8)
          CFI (cfiCond121) R5 Frame(CFA_Y, -7)
          CFI (cfiCond121) R6 Frame(CFA_Y, -6)
          CFI (cfiCond121) R7 Frame(CFA_Y, -5)
          CFI (cfiCond121) R8 Frame(CFA_Y, -4)
          CFI (cfiCond121) R9 Frame(CFA_Y, -3)
          CFI (cfiCond121) R10 Frame(CFA_Y, -2)
          CFI (cfiCond121) R11 Frame(CFA_Y, -1)
          CFI (cfiCond121) CFA_SP SP+4
          CFI (cfiCond121) CFA_Y Y+12
          CFI Block cfiCond122 Using cfiCommon0
          CFI (cfiCond122) Function ??getRTCDateTimeDay
          CFI (cfiCond122) Conditional ??CrossCallReturnLabel_113, ??CrossCallReturnLabel_34
          CFI (cfiCond122) R24 Frame(CFA_Y, -16)
          CFI (cfiCond122) R25 Frame(CFA_Y, -15)
          CFI (cfiCond122) R26 Frame(CFA_Y, -14)
          CFI (cfiCond122) R27 Frame(CFA_Y, -13)
          CFI (cfiCond122) R4 Frame(CFA_Y, -12)
          CFI (cfiCond122) R5 Frame(CFA_Y, -11)
          CFI (cfiCond122) R6 Frame(CFA_Y, -10)
          CFI (cfiCond122) R7 Frame(CFA_Y, -9)
          CFI (cfiCond122) R8 Frame(CFA_Y, -8)
          CFI (cfiCond122) R9 Frame(CFA_Y, -7)
          CFI (cfiCond122) R10 Frame(CFA_Y, -6)
          CFI (cfiCond122) R11 Frame(CFA_Y, -5)
          CFI (cfiCond122) R12 Frame(CFA_Y, -4)
          CFI (cfiCond122) R13 Frame(CFA_Y, -3)
          CFI (cfiCond122) R14 Frame(CFA_Y, -2)
          CFI (cfiCond122) R15 Frame(CFA_Y, -1)
          CFI (cfiCond122) CFA_SP SP+6
          CFI (cfiCond122) CFA_Y Y+16
          CFI Block cfiCond123 Using cfiCommon0
          CFI (cfiCond123) Function ??getCurPeriodsNum
          CFI (cfiCond123) Conditional ??CrossCallReturnLabel_113
          CFI (cfiCond123) R24 Frame(CFA_Y, -12)
          CFI (cfiCond123) R25 Frame(CFA_Y, -11)
          CFI (cfiCond123) R26 Frame(CFA_Y, -10)
          CFI (cfiCond123) R27 Frame(CFA_Y, -9)
          CFI (cfiCond123) R4 Frame(CFA_Y, -8)
          CFI (cfiCond123) R5 Frame(CFA_Y, -7)
          CFI (cfiCond123) R6 Frame(CFA_Y, -6)
          CFI (cfiCond123) R7 Frame(CFA_Y, -5)
          CFI (cfiCond123) R8 Frame(CFA_Y, -4)
          CFI (cfiCond123) R9 Frame(CFA_Y, -3)
          CFI (cfiCond123) R10 Frame(CFA_Y, -2)
          CFI (cfiCond123) R11 Frame(CFA_Y, -1)
          CFI (cfiCond123) CFA_SP SP+4
          CFI (cfiCond123) CFA_Y Y+12
          CFI Block cfiBlock124 Using cfiCommon0
          CFI (cfiBlock124) NoFunction
          CFI (cfiBlock124) CFA_Y Y+6
          CFI (cfiBlock124) R4 Frame(CFA_Y, -2)
          CFI (cfiBlock124) R5 Frame(CFA_Y, -1)
          CFI (cfiBlock124) R24 Frame(CFA_Y, -6)
          CFI (cfiBlock124) R25 Frame(CFA_Y, -5)
          CFI (cfiBlock124) R26 Frame(CFA_Y, -4)
          CFI (cfiBlock124) R27 Frame(CFA_Y, -3)
          CFI Block cfiPicker125 Using cfiCommon1
          CFI (cfiPicker125) NoFunction
          CFI (cfiPicker125) Picker
        RCALL   ?Subroutine91
          CFI (cfiCond120) R24 SameValue
          CFI (cfiCond120) R25 SameValue
          CFI (cfiCond120) R26 SameValue
          CFI (cfiCond120) R27 SameValue
          CFI (cfiCond120) CFA_Y Y+4
          CFI (cfiCond121) R24 SameValue
          CFI (cfiCond121) R25 SameValue
          CFI (cfiCond121) R26 SameValue
          CFI (cfiCond121) R27 SameValue
          CFI (cfiCond121) CFA_Y Y+8
          CFI (cfiCond122) R24 SameValue
          CFI (cfiCond122) R25 SameValue
          CFI (cfiCond122) R26 SameValue
          CFI (cfiCond122) R27 SameValue
          CFI (cfiCond122) CFA_Y Y+12
          CFI (cfiCond123) R24 SameValue
          CFI (cfiCond123) R25 SameValue
          CFI (cfiCond123) R26 SameValue
          CFI (cfiCond123) R27 SameValue
          CFI (cfiCond123) CFA_Y Y+8
          CFI (cfiBlock124) CFA_Y Y+2
          CFI (cfiBlock124) R24 SameValue
          CFI (cfiBlock124) R25 SameValue
          CFI (cfiBlock124) R26 SameValue
          CFI (cfiBlock124) R27 SameValue
??CrossCallReturnLabel_156:
        LD      R4, Y+
          CFI (cfiCond120) R4 SameValue
          CFI (cfiCond120) CFA_Y Y+3
          CFI (cfiCond121) R4 SameValue
          CFI (cfiCond121) CFA_Y Y+7
          CFI (cfiCond122) R4 SameValue
          CFI (cfiCond122) CFA_Y Y+11
          CFI (cfiCond123) R4 SameValue
          CFI (cfiCond123) CFA_Y Y+7
          CFI (cfiBlock124) CFA_Y Y+1
          CFI (cfiBlock124) R4 SameValue
        LD      R5, Y+
          CFI (cfiCond120) R5 SameValue
          CFI (cfiCond120) CFA_Y Y+2
          CFI (cfiCond121) R5 SameValue
          CFI (cfiCond121) CFA_Y Y+6
          CFI (cfiCond122) R5 SameValue
          CFI (cfiCond122) CFA_Y Y+10
          CFI (cfiCond123) R5 SameValue
          CFI (cfiCond123) CFA_Y Y+6
          CFI (cfiBlock124) CFA_Y Y+0
          CFI (cfiBlock124) R5 SameValue
        RET
          CFI EndBlock cfiCond120
          CFI EndBlock cfiCond121
          CFI EndBlock cfiCond122
          CFI EndBlock cfiCond123
          CFI EndBlock cfiBlock124
          CFI EndBlock cfiPicker125

        RSEG CODE:CODE:NOROOT(1)
?Subroutine6:
          CFI Block cfiCond126 Using cfiCommon0
          CFI Function ??getRTCDateTimeHour
          CFI Conditional ??CrossCallReturnLabel_181
          CFI R24 Frame(CFA_Y, -6)
          CFI R25 Frame(CFA_Y, -5)
          CFI R26 Frame(CFA_Y, -4)
          CFI R27 Frame(CFA_Y, -3)
          CFI R4 Frame(CFA_Y, -2)
          CFI R5 Frame(CFA_Y, -1)
          CFI CFA_SP SP+4
          CFI CFA_Y Y+6
          CFI Block cfiCond127 Using cfiCommon0
          CFI (cfiCond127) Function ??getRTCDateTimeHour
          CFI (cfiCond127) Conditional ??CrossCallReturnLabel_182
          CFI (cfiCond127) R24 Frame(CFA_Y, -6)
          CFI (cfiCond127) R25 Frame(CFA_Y, -5)
          CFI (cfiCond127) R26 Frame(CFA_Y, -4)
          CFI (cfiCond127) R27 Frame(CFA_Y, -3)
          CFI (cfiCond127) R4 Frame(CFA_Y, -2)
          CFI (cfiCond127) R5 Frame(CFA_Y, -1)
          CFI (cfiCond127) CFA_SP SP+4
          CFI (cfiCond127) CFA_Y Y+6
          CFI Block cfiPicker128 Using cfiCommon1
          CFI (cfiPicker128) NoFunction
          CFI (cfiPicker128) Picker
        LDI     R20, 24
          CFI EndBlock cfiCond126
          CFI EndBlock cfiCond127
          CFI EndBlock cfiPicker128
        REQUIRE ??Subroutine100_0
        ;               // Fall through to label ??Subroutine100_0

        RSEG CODE:CODE:NOROOT(1)
??Subroutine100_0:
          CFI Block cfiCond129 Using cfiCommon0
          CFI Function ??getPeriodNumDay
          CFI Conditional ??CrossCallReturnLabel_180
          CFI R24 Frame(CFA_Y, -12)
          CFI R25 Frame(CFA_Y, -11)
          CFI R26 Frame(CFA_Y, -10)
          CFI R27 Frame(CFA_Y, -9)
          CFI R4 Frame(CFA_Y, -8)
          CFI R5 Frame(CFA_Y, -7)
          CFI R6 Frame(CFA_Y, -6)
          CFI R7 Frame(CFA_Y, -5)
          CFI R8 Frame(CFA_Y, -4)
          CFI R9 Frame(CFA_Y, -3)
          CFI R10 Frame(CFA_Y, -2)
          CFI R11 Frame(CFA_Y, -1)
          CFI CFA_SP SP+4
          CFI CFA_Y Y+12
          CFI Block cfiCond130 Using cfiCommon0
          CFI (cfiCond130) Function ??getRTCDateTimeHour
          CFI (cfiCond130) Conditional ??CrossCallReturnLabel_181
          CFI (cfiCond130) R24 Frame(CFA_Y, -6)
          CFI (cfiCond130) R25 Frame(CFA_Y, -5)
          CFI (cfiCond130) R26 Frame(CFA_Y, -4)
          CFI (cfiCond130) R27 Frame(CFA_Y, -3)
          CFI (cfiCond130) R4 Frame(CFA_Y, -2)
          CFI (cfiCond130) R5 Frame(CFA_Y, -1)
          CFI (cfiCond130) CFA_SP SP+4
          CFI (cfiCond130) CFA_Y Y+6
          CFI Block cfiCond131 Using cfiCommon0
          CFI (cfiCond131) Function ??getRTCDateTimeHour
          CFI (cfiCond131) Conditional ??CrossCallReturnLabel_182
          CFI (cfiCond131) R24 Frame(CFA_Y, -6)
          CFI (cfiCond131) R25 Frame(CFA_Y, -5)
          CFI (cfiCond131) R26 Frame(CFA_Y, -4)
          CFI (cfiCond131) R27 Frame(CFA_Y, -3)
          CFI (cfiCond131) R4 Frame(CFA_Y, -2)
          CFI (cfiCond131) R5 Frame(CFA_Y, -1)
          CFI (cfiCond131) CFA_SP SP+4
          CFI (cfiCond131) CFA_Y Y+6
          CFI Block cfiPicker132 Using cfiCommon1
          CFI (cfiPicker132) NoFunction
          CFI (cfiPicker132) Picker
        RCALL   ?Subroutine65
??CrossCallReturnLabel_187:
        RCALL   ?Subroutine69
??CrossCallReturnLabel_191:
        RJMP    ?Subroutine70
          CFI EndBlock cfiCond129
          CFI EndBlock cfiCond130
          CFI EndBlock cfiCond131
          CFI EndBlock cfiPicker132
//  115 

        RSEG CODE:CODE:NOROOT(1)
//  116     __monitor void getCurPeriodsNum(unsigned long* _periodNumHour, unsigned long* _periodNumDay, unsigned short* _periodNumMonth)
??getCurPeriodsNum:
          CFI Block cfiBlock133 Using cfiCommon0
          CFI Function ??getCurPeriodsNum
//  117     {
        FUNCALL ??getCurPeriodsNum, ??getPeriodNumDay
        LOCFRAME CSTACK, 12, STACK
        LOCFRAME RSTACK, 2, STACK
        ARGFRAME RSTACK, 0, STACK
        RCALL   ?Subroutine0
          CFI R24 Frame(CFA_Y, -12)
          CFI R25 Frame(CFA_Y, -11)
          CFI R26 Frame(CFA_Y, -10)
          CFI R27 Frame(CFA_Y, -9)
          CFI R4 Frame(CFA_Y, -8)
          CFI R5 Frame(CFA_Y, -7)
          CFI R6 Frame(CFA_Y, -6)
          CFI R7 Frame(CFA_Y, -5)
          CFI R8 Frame(CFA_Y, -4)
          CFI R9 Frame(CFA_Y, -3)
          CFI R10 Frame(CFA_Y, -2)
          CFI R11 Frame(CFA_Y, -1)
          CFI CFA_Y Y+12
??CrossCallReturnLabel_2:
        IN      R5, 0x3F
        REQUIRE ?Register_R4_is_cg_reg
        REQUIRE ?Register_R5_is_cg_reg
        REQUIRE ?Register_R6_is_cg_reg
        REQUIRE ?Register_R7_is_cg_reg
        REQUIRE ?Register_R8_is_cg_reg
        REQUIRE ?Register_R9_is_cg_reg
        REQUIRE ?Register_R10_is_cg_reg
        REQUIRE ?Register_R11_is_cg_reg
        CLI
        MOVW    R7:R6, R17:R16
        MOVW    R9:R8, R19:R18
        MOVW    R11:R10, R21:R20
//  118       *_periodNumHour = getPeriodNumHour(
//  119         GLOBAL::RTC::RTCDateTime.year,
//  120         GLOBAL::RTC::RTCDateTime.month,
//  121         GLOBAL::RTC::RTCDateTime.day,
//  122         GLOBAL::RTC::RTCDateTime.hour);
        LDI     R26, LOW(??RTCDateTime)
        LDI     R27, (??RTCDateTime) >> 8
        LDS     R4, (??RTCDateTime + 4)
        LDS     R24, (??RTCDateTime + 2)
        LDS     R19, (??RTCDateTime + 3)
        MOV     R18, R24
        LD      R16, X+
        LD      R17, X
        SBIW    R27:R26, 1
        RCALL   ?Subroutine75
??CrossCallReturnLabel_115:
        RCALL   ?Subroutine64
??CrossCallReturnLabel_104:
        RCALL   ?Subroutine67
??CrossCallReturnLabel_106:
        RCALL   ?Subroutine65
??CrossCallReturnLabel_185:
        ADD     R16, R4
        ADC     R17, R21
        ADC     R18, R21
        ADC     R19, R21
        MOVW    R31:R30, R7:R6
        RCALL   ?Subroutine32
//  123 
//  124       *_periodNumDay = *_periodNumHour / 24;
??CrossCallReturnLabel_39:
        LDI     R20, 24
        LD      R16, Z
        LDD     R17, Z+1
        LDD     R18, Z+2
        RCALL   ?Subroutine70
??CrossCallReturnLabel_195:
        MOVW    R31:R30, R9:R8
        RCALL   ?Subroutine32
//  125 
//  126       *_periodNumMonth = getPeriodNumMonth(
//  127         GLOBAL::RTC::RTCDateTime.year,
//  128         GLOBAL::RTC::RTCDateTime.month);
??CrossCallReturnLabel_40:
        LD      R18, X+
        LD      R19, X
        SUBI    R18, 208
        SBCI    R19, 7
        LDI     R16, 12
        MUL     R16, R19
        MOV     R17, R0
        MUL     R16, R18
        MOV     R16, R0
        ADD     R17, R1
        LDI     R25, 0
        SBIW    R25:R24, 1
        ADD     R16, R24
        ADC     R17, R25
        MOVW    R31:R30, R11:R10
        ST      Z, R16
        STD     Z+1, R17
//  129     }
        OUT     0x3F, R5
        RJMP    ?Subroutine27
          CFI EndBlock cfiBlock133

        RSEG CODE:CODE:NOROOT(1)
?Subroutine75:
          CFI Block cfiCond134 Using cfiCommon0
          CFI Function ??getPeriodNumHour
          CFI Conditional ??CrossCallReturnLabel_114
          CFI R24 Frame(CFA_Y, -1)
          CFI CFA_SP SP+4
          CFI CFA_Y Y+1
          CFI Block cfiCond135 Using cfiCommon0
          CFI (cfiCond135) Function ??getPeriodNumHour_1
          CFI (cfiCond135) Conditional ??CrossCallReturnLabel_114
          CFI (cfiCond135) R24 Frame(CFA_Y, -1)
          CFI (cfiCond135) CFA_SP SP+4
          CFI (cfiCond135) CFA_Y Y+1
          CFI Block cfiCond136 Using cfiCommon0
          CFI (cfiCond136) Function ??getCurPeriodsNum
          CFI (cfiCond136) Conditional ??CrossCallReturnLabel_115
          CFI (cfiCond136) R24 Frame(CFA_Y, -12)
          CFI (cfiCond136) R25 Frame(CFA_Y, -11)
          CFI (cfiCond136) R26 Frame(CFA_Y, -10)
          CFI (cfiCond136) R27 Frame(CFA_Y, -9)
          CFI (cfiCond136) R4 Frame(CFA_Y, -8)
          CFI (cfiCond136) R5 Frame(CFA_Y, -7)
          CFI (cfiCond136) R6 Frame(CFA_Y, -6)
          CFI (cfiCond136) R7 Frame(CFA_Y, -5)
          CFI (cfiCond136) R8 Frame(CFA_Y, -4)
          CFI (cfiCond136) R9 Frame(CFA_Y, -3)
          CFI (cfiCond136) R10 Frame(CFA_Y, -2)
          CFI (cfiCond136) R11 Frame(CFA_Y, -1)
          CFI (cfiCond136) CFA_SP SP+4
          CFI (cfiCond136) CFA_Y Y+12
          CFI Block cfiPicker137 Using cfiCommon1
          CFI (cfiPicker137) NoFunction
          CFI (cfiPicker137) Picker
        RCALL   ??getPeriodNumDay
        MOV     R20, R16
        LDI     R16, 24
        CLR     R2
        RET
          CFI EndBlock cfiCond134
          CFI EndBlock cfiCond135
          CFI EndBlock cfiCond136
          CFI EndBlock cfiPicker137

        RSEG CODE:CODE:NOROOT(1)
?Subroutine67:
          CFI Block cfiCond138 Using cfiCommon0
          CFI Function ??getPeriodNumHour
          CFI Conditional ??CrossCallReturnLabel_107
          CFI R24 Frame(CFA_Y, -1)
          CFI CFA_SP SP+4
          CFI CFA_Y Y+1
          CFI Block cfiCond139 Using cfiCommon0
          CFI (cfiCond139) Function ??getPeriodNumHour_1
          CFI (cfiCond139) Conditional ??CrossCallReturnLabel_107
          CFI (cfiCond139) R24 Frame(CFA_Y, -1)
          CFI (cfiCond139) CFA_SP SP+4
          CFI (cfiCond139) CFA_Y Y+1
          CFI Block cfiCond140 Using cfiCommon0
          CFI (cfiCond140) Function ??getCurPeriodsNum
          CFI (cfiCond140) Conditional ??CrossCallReturnLabel_106
          CFI (cfiCond140) R24 Frame(CFA_Y, -12)
          CFI (cfiCond140) R25 Frame(CFA_Y, -11)
          CFI (cfiCond140) R26 Frame(CFA_Y, -10)
          CFI (cfiCond140) R27 Frame(CFA_Y, -9)
          CFI (cfiCond140) R4 Frame(CFA_Y, -8)
          CFI (cfiCond140) R5 Frame(CFA_Y, -7)
          CFI (cfiCond140) R6 Frame(CFA_Y, -6)
          CFI (cfiCond140) R7 Frame(CFA_Y, -5)
          CFI (cfiCond140) R8 Frame(CFA_Y, -4)
          CFI (cfiCond140) R9 Frame(CFA_Y, -3)
          CFI (cfiCond140) R10 Frame(CFA_Y, -2)
          CFI (cfiCond140) R11 Frame(CFA_Y, -1)
          CFI (cfiCond140) CFA_SP SP+4
          CFI (cfiCond140) CFA_Y Y+12
          CFI Block cfiPicker141 Using cfiCommon1
          CFI (cfiPicker141) NoFunction
          CFI (cfiPicker141) Picker
        ADC     R19, R2
        MUL     R16, R20
        MOV     R16, R0
        ADD     R17, R1
        ADC     R18, R2
        ADC     R19, R2
        RET
          CFI EndBlock cfiCond138
          CFI EndBlock cfiCond139
          CFI EndBlock cfiCond140
          CFI EndBlock cfiPicker141

        RSEG CODE:CODE:NOROOT(1)
?Subroutine27:
          CFI Block cfiCond142 Using cfiCommon0
          CFI Function ??getRTCDateTimeDay
          CFI Conditional ??CrossCallReturnLabel_34
          CFI R24 Frame(CFA_Y, -16)
          CFI R25 Frame(CFA_Y, -15)
          CFI R26 Frame(CFA_Y, -14)
          CFI R27 Frame(CFA_Y, -13)
          CFI R4 Frame(CFA_Y, -12)
          CFI R5 Frame(CFA_Y, -11)
          CFI R6 Frame(CFA_Y, -10)
          CFI R7 Frame(CFA_Y, -9)
          CFI R8 Frame(CFA_Y, -8)
          CFI R9 Frame(CFA_Y, -7)
          CFI R10 Frame(CFA_Y, -6)
          CFI R11 Frame(CFA_Y, -5)
          CFI R12 Frame(CFA_Y, -4)
          CFI R13 Frame(CFA_Y, -3)
          CFI R14 Frame(CFA_Y, -2)
          CFI R15 Frame(CFA_Y, -1)
          CFI CFA_SP SP+4
          CFI CFA_Y Y+16
          CFI Block cfiBlock143 Using cfiCommon0
          CFI (cfiBlock143) NoFunction
          CFI (cfiBlock143) CFA_Y Y+12
          CFI (cfiBlock143) R4 Frame(CFA_Y, -8)
          CFI (cfiBlock143) R5 Frame(CFA_Y, -7)
          CFI (cfiBlock143) R6 Frame(CFA_Y, -6)
          CFI (cfiBlock143) R7 Frame(CFA_Y, -5)
          CFI (cfiBlock143) R8 Frame(CFA_Y, -4)
          CFI (cfiBlock143) R9 Frame(CFA_Y, -3)
          CFI (cfiBlock143) R10 Frame(CFA_Y, -2)
          CFI (cfiBlock143) R11 Frame(CFA_Y, -1)
          CFI (cfiBlock143) R24 Frame(CFA_Y, -12)
          CFI (cfiBlock143) R25 Frame(CFA_Y, -11)
          CFI (cfiBlock143) R26 Frame(CFA_Y, -10)
          CFI (cfiBlock143) R27 Frame(CFA_Y, -9)
          CFI Block cfiPicker144 Using cfiCommon1
          CFI (cfiPicker144) NoFunction
          CFI (cfiPicker144) Picker
        RCALL   ?Subroutine73
          CFI (cfiCond142) R24 SameValue
          CFI (cfiCond142) R25 SameValue
          CFI (cfiCond142) R26 SameValue
          CFI (cfiCond142) R27 SameValue
          CFI (cfiCond142) R4 SameValue
          CFI (cfiCond142) R5 SameValue
          CFI (cfiCond142) CFA_Y Y+10
          CFI (cfiBlock143) CFA_Y Y+6
          CFI (cfiBlock143) R4 SameValue
          CFI (cfiBlock143) R5 SameValue
          CFI (cfiBlock143) R24 SameValue
          CFI (cfiBlock143) R25 SameValue
          CFI (cfiBlock143) R26 SameValue
          CFI (cfiBlock143) R27 SameValue
??CrossCallReturnLabel_113:
        LD      R6, Y+
          CFI (cfiCond142) R6 SameValue
          CFI (cfiCond142) CFA_Y Y+9
          CFI (cfiBlock143) CFA_Y Y+5
          CFI (cfiBlock143) R6 SameValue
        LD      R7, Y+
          CFI (cfiCond142) R7 SameValue
          CFI (cfiCond142) CFA_Y Y+8
          CFI (cfiBlock143) CFA_Y Y+4
          CFI (cfiBlock143) R7 SameValue
        LD      R8, Y+
          CFI (cfiCond142) R8 SameValue
          CFI (cfiCond142) CFA_Y Y+7
          CFI (cfiBlock143) CFA_Y Y+3
          CFI (cfiBlock143) R8 SameValue
        LD      R9, Y+
          CFI (cfiCond142) R9 SameValue
          CFI (cfiCond142) CFA_Y Y+6
          CFI (cfiBlock143) CFA_Y Y+2
          CFI (cfiBlock143) R9 SameValue
        LD      R10, Y+
          CFI (cfiCond142) R10 SameValue
          CFI (cfiCond142) CFA_Y Y+5
          CFI (cfiBlock143) CFA_Y Y+1
          CFI (cfiBlock143) R10 SameValue
        LD      R11, Y+
          CFI (cfiCond142) R11 SameValue
          CFI (cfiCond142) CFA_Y Y+4
          CFI (cfiBlock143) CFA_Y Y+0
          CFI (cfiBlock143) R11 SameValue
        RET
          CFI EndBlock cfiCond142
          CFI EndBlock cfiBlock143
          CFI EndBlock cfiPicker144

        RSEG CODE:CODE:NOROOT(1)
?Subroutine65:
          CFI Block cfiCond145 Using cfiCommon0
          CFI Function ??getPeriodNumDay
          CFI Conditional ??CrossCallReturnLabel_186, ??CrossCallReturnLabel_175
          CFI R24 Frame(CFA_Y, -12)
          CFI R25 Frame(CFA_Y, -11)
          CFI R26 Frame(CFA_Y, -10)
          CFI R27 Frame(CFA_Y, -9)
          CFI R4 Frame(CFA_Y, -8)
          CFI R5 Frame(CFA_Y, -7)
          CFI R6 Frame(CFA_Y, -6)
          CFI R7 Frame(CFA_Y, -5)
          CFI R8 Frame(CFA_Y, -4)
          CFI R9 Frame(CFA_Y, -3)
          CFI R10 Frame(CFA_Y, -2)
          CFI R11 Frame(CFA_Y, -1)
          CFI CFA_SP SP+6
          CFI CFA_Y Y+12
          CFI Block cfiCond146 Using cfiCommon0
          CFI (cfiCond146) Function ??getRTCDateTimeDay
          CFI (cfiCond146) Conditional ??CrossCallReturnLabel_186, ??CrossCallReturnLabel_176
          CFI (cfiCond146) R24 Frame(CFA_Y, -16)
          CFI (cfiCond146) R25 Frame(CFA_Y, -15)
          CFI (cfiCond146) R26 Frame(CFA_Y, -14)
          CFI (cfiCond146) R27 Frame(CFA_Y, -13)
          CFI (cfiCond146) R4 Frame(CFA_Y, -12)
          CFI (cfiCond146) R5 Frame(CFA_Y, -11)
          CFI (cfiCond146) R6 Frame(CFA_Y, -10)
          CFI (cfiCond146) R7 Frame(CFA_Y, -9)
          CFI (cfiCond146) R8 Frame(CFA_Y, -8)
          CFI (cfiCond146) R9 Frame(CFA_Y, -7)
          CFI (cfiCond146) R10 Frame(CFA_Y, -6)
          CFI (cfiCond146) R11 Frame(CFA_Y, -5)
          CFI (cfiCond146) R12 Frame(CFA_Y, -4)
          CFI (cfiCond146) R13 Frame(CFA_Y, -3)
          CFI (cfiCond146) R14 Frame(CFA_Y, -2)
          CFI (cfiCond146) R15 Frame(CFA_Y, -1)
          CFI (cfiCond146) CFA_SP SP+6
          CFI (cfiCond146) CFA_Y Y+22
          CFI Block cfiCond147 Using cfiCommon0
          CFI (cfiCond147) Function ??getRTCDateTimeDay
          CFI (cfiCond147) Conditional ??CrossCallReturnLabel_186, ??CrossCallReturnLabel_174
          CFI (cfiCond147) R24 Frame(CFA_Y, -16)
          CFI (cfiCond147) R25 Frame(CFA_Y, -15)
          CFI (cfiCond147) R26 Frame(CFA_Y, -14)
          CFI (cfiCond147) R27 Frame(CFA_Y, -13)
          CFI (cfiCond147) R4 Frame(CFA_Y, -12)
          CFI (cfiCond147) R5 Frame(CFA_Y, -11)
          CFI (cfiCond147) R6 Frame(CFA_Y, -10)
          CFI (cfiCond147) R7 Frame(CFA_Y, -9)
          CFI (cfiCond147) R8 Frame(CFA_Y, -8)
          CFI (cfiCond147) R9 Frame(CFA_Y, -7)
          CFI (cfiCond147) R10 Frame(CFA_Y, -6)
          CFI (cfiCond147) R11 Frame(CFA_Y, -5)
          CFI (cfiCond147) R12 Frame(CFA_Y, -4)
          CFI (cfiCond147) R13 Frame(CFA_Y, -3)
          CFI (cfiCond147) R14 Frame(CFA_Y, -2)
          CFI (cfiCond147) R15 Frame(CFA_Y, -1)
          CFI (cfiCond147) CFA_SP SP+6
          CFI (cfiCond147) CFA_Y Y+22
          CFI Block cfiCond148 Using cfiCommon0
          CFI (cfiCond148) Function ??getRTCDateTimeHour
          CFI (cfiCond148) Conditional ??CrossCallReturnLabel_187, ??CrossCallReturnLabel_181
          CFI (cfiCond148) R24 Frame(CFA_Y, -6)
          CFI (cfiCond148) R25 Frame(CFA_Y, -5)
          CFI (cfiCond148) R26 Frame(CFA_Y, -4)
          CFI (cfiCond148) R27 Frame(CFA_Y, -3)
          CFI (cfiCond148) R4 Frame(CFA_Y, -2)
          CFI (cfiCond148) R5 Frame(CFA_Y, -1)
          CFI (cfiCond148) CFA_SP SP+6
          CFI (cfiCond148) CFA_Y Y+6
          CFI Block cfiCond149 Using cfiCommon0
          CFI (cfiCond149) Function ??getRTCDateTimeHour
          CFI (cfiCond149) Conditional ??CrossCallReturnLabel_187, ??CrossCallReturnLabel_182
          CFI (cfiCond149) R24 Frame(CFA_Y, -6)
          CFI (cfiCond149) R25 Frame(CFA_Y, -5)
          CFI (cfiCond149) R26 Frame(CFA_Y, -4)
          CFI (cfiCond149) R27 Frame(CFA_Y, -3)
          CFI (cfiCond149) R4 Frame(CFA_Y, -2)
          CFI (cfiCond149) R5 Frame(CFA_Y, -1)
          CFI (cfiCond149) CFA_SP SP+6
          CFI (cfiCond149) CFA_Y Y+6
          CFI Block cfiCond150 Using cfiCommon0
          CFI (cfiCond150) Function ??getPeriodNumDay
          CFI (cfiCond150) Conditional ??CrossCallReturnLabel_187, ??CrossCallReturnLabel_180
          CFI (cfiCond150) R24 Frame(CFA_Y, -12)
          CFI (cfiCond150) R25 Frame(CFA_Y, -11)
          CFI (cfiCond150) R26 Frame(CFA_Y, -10)
          CFI (cfiCond150) R27 Frame(CFA_Y, -9)
          CFI (cfiCond150) R4 Frame(CFA_Y, -8)
          CFI (cfiCond150) R5 Frame(CFA_Y, -7)
          CFI (cfiCond150) R6 Frame(CFA_Y, -6)
          CFI (cfiCond150) R7 Frame(CFA_Y, -5)
          CFI (cfiCond150) R8 Frame(CFA_Y, -4)
          CFI (cfiCond150) R9 Frame(CFA_Y, -3)
          CFI (cfiCond150) R10 Frame(CFA_Y, -2)
          CFI (cfiCond150) R11 Frame(CFA_Y, -1)
          CFI (cfiCond150) CFA_SP SP+6
          CFI (cfiCond150) CFA_Y Y+12
          CFI Block cfiCond151 Using cfiCommon0
          CFI (cfiCond151) Function ??getRTCDateTimeDay
          CFI (cfiCond151) Conditional ??CrossCallReturnLabel_183
          CFI (cfiCond151) R24 Frame(CFA_Y, -16)
          CFI (cfiCond151) R25 Frame(CFA_Y, -15)
          CFI (cfiCond151) R26 Frame(CFA_Y, -14)
          CFI (cfiCond151) R27 Frame(CFA_Y, -13)
          CFI (cfiCond151) R4 Frame(CFA_Y, -12)
          CFI (cfiCond151) R5 Frame(CFA_Y, -11)
          CFI (cfiCond151) R6 Frame(CFA_Y, -10)
          CFI (cfiCond151) R7 Frame(CFA_Y, -9)
          CFI (cfiCond151) R8 Frame(CFA_Y, -8)
          CFI (cfiCond151) R9 Frame(CFA_Y, -7)
          CFI (cfiCond151) R10 Frame(CFA_Y, -6)
          CFI (cfiCond151) R11 Frame(CFA_Y, -5)
          CFI (cfiCond151) R12 Frame(CFA_Y, -4)
          CFI (cfiCond151) R13 Frame(CFA_Y, -3)
          CFI (cfiCond151) R14 Frame(CFA_Y, -2)
          CFI (cfiCond151) R15 Frame(CFA_Y, -1)
          CFI (cfiCond151) CFA_SP SP+4
          CFI (cfiCond151) CFA_Y Y+22
          CFI Block cfiCond152 Using cfiCommon0
          CFI (cfiCond152) Function ??getRTCDateTimeDay
          CFI (cfiCond152) Conditional ??CrossCallReturnLabel_184
          CFI (cfiCond152) R24 Frame(CFA_Y, -16)
          CFI (cfiCond152) R25 Frame(CFA_Y, -15)
          CFI (cfiCond152) R26 Frame(CFA_Y, -14)
          CFI (cfiCond152) R27 Frame(CFA_Y, -13)
          CFI (cfiCond152) R4 Frame(CFA_Y, -12)
          CFI (cfiCond152) R5 Frame(CFA_Y, -11)
          CFI (cfiCond152) R6 Frame(CFA_Y, -10)
          CFI (cfiCond152) R7 Frame(CFA_Y, -9)
          CFI (cfiCond152) R8 Frame(CFA_Y, -8)
          CFI (cfiCond152) R9 Frame(CFA_Y, -7)
          CFI (cfiCond152) R10 Frame(CFA_Y, -6)
          CFI (cfiCond152) R11 Frame(CFA_Y, -5)
          CFI (cfiCond152) R12 Frame(CFA_Y, -4)
          CFI (cfiCond152) R13 Frame(CFA_Y, -3)
          CFI (cfiCond152) R14 Frame(CFA_Y, -2)
          CFI (cfiCond152) R15 Frame(CFA_Y, -1)
          CFI (cfiCond152) CFA_SP SP+4
          CFI (cfiCond152) CFA_Y Y+22
          CFI Block cfiCond153 Using cfiCommon0
          CFI (cfiCond153) Function ??getCurPeriodsNum
          CFI (cfiCond153) Conditional ??CrossCallReturnLabel_185
          CFI (cfiCond153) R24 Frame(CFA_Y, -12)
          CFI (cfiCond153) R25 Frame(CFA_Y, -11)
          CFI (cfiCond153) R26 Frame(CFA_Y, -10)
          CFI (cfiCond153) R27 Frame(CFA_Y, -9)
          CFI (cfiCond153) R4 Frame(CFA_Y, -8)
          CFI (cfiCond153) R5 Frame(CFA_Y, -7)
          CFI (cfiCond153) R6 Frame(CFA_Y, -6)
          CFI (cfiCond153) R7 Frame(CFA_Y, -5)
          CFI (cfiCond153) R8 Frame(CFA_Y, -4)
          CFI (cfiCond153) R9 Frame(CFA_Y, -3)
          CFI (cfiCond153) R10 Frame(CFA_Y, -2)
          CFI (cfiCond153) R11 Frame(CFA_Y, -1)
          CFI (cfiCond153) CFA_SP SP+4
          CFI (cfiCond153) CFA_Y Y+12
          CFI Block cfiPicker154 Using cfiCommon1
          CFI (cfiPicker154) NoFunction
          CFI (cfiPicker154) Picker
        LDI     R21, 0
        LDI     R22, 0
        LDI     R23, 0
        RET
          CFI EndBlock cfiCond145
          CFI EndBlock cfiCond146
          CFI EndBlock cfiCond147
          CFI EndBlock cfiCond148
          CFI EndBlock cfiCond149
          CFI EndBlock cfiCond150
          CFI EndBlock cfiCond151
          CFI EndBlock cfiCond152
          CFI EndBlock cfiCond153
          CFI EndBlock cfiPicker154

        RSEG CODE:CODE:NOROOT(1)
?Subroutine64:
          CFI Block cfiCond155 Using cfiCommon0
          CFI Function ??getPeriodNumHour
          CFI Conditional ??CrossCallReturnLabel_105
          CFI R24 Frame(CFA_Y, -1)
          CFI CFA_SP SP+4
          CFI CFA_Y Y+1
          CFI Block cfiCond156 Using cfiCommon0
          CFI (cfiCond156) Function ??getPeriodNumHour_1
          CFI (cfiCond156) Conditional ??CrossCallReturnLabel_105
          CFI (cfiCond156) R24 Frame(CFA_Y, -1)
          CFI (cfiCond156) CFA_SP SP+4
          CFI (cfiCond156) CFA_Y Y+1
          CFI Block cfiCond157 Using cfiCommon0
          CFI (cfiCond157) Function ??getRTCDateTimeDay
          CFI (cfiCond157) Conditional ??CrossCallReturnLabel_103
          CFI (cfiCond157) R24 Frame(CFA_Y, -16)
          CFI (cfiCond157) R25 Frame(CFA_Y, -15)
          CFI (cfiCond157) R26 Frame(CFA_Y, -14)
          CFI (cfiCond157) R27 Frame(CFA_Y, -13)
          CFI (cfiCond157) R4 Frame(CFA_Y, -12)
          CFI (cfiCond157) R5 Frame(CFA_Y, -11)
          CFI (cfiCond157) R6 Frame(CFA_Y, -10)
          CFI (cfiCond157) R7 Frame(CFA_Y, -9)
          CFI (cfiCond157) R8 Frame(CFA_Y, -8)
          CFI (cfiCond157) R9 Frame(CFA_Y, -7)
          CFI (cfiCond157) R10 Frame(CFA_Y, -6)
          CFI (cfiCond157) R11 Frame(CFA_Y, -5)
          CFI (cfiCond157) R12 Frame(CFA_Y, -4)
          CFI (cfiCond157) R13 Frame(CFA_Y, -3)
          CFI (cfiCond157) R14 Frame(CFA_Y, -2)
          CFI (cfiCond157) R15 Frame(CFA_Y, -1)
          CFI (cfiCond157) CFA_SP SP+4
          CFI (cfiCond157) CFA_Y Y+22
          CFI Block cfiCond158 Using cfiCommon0
          CFI (cfiCond158) Function ??getCurPeriodsNum
          CFI (cfiCond158) Conditional ??CrossCallReturnLabel_104
          CFI (cfiCond158) R24 Frame(CFA_Y, -12)
          CFI (cfiCond158) R25 Frame(CFA_Y, -11)
          CFI (cfiCond158) R26 Frame(CFA_Y, -10)
          CFI (cfiCond158) R27 Frame(CFA_Y, -9)
          CFI (cfiCond158) R4 Frame(CFA_Y, -8)
          CFI (cfiCond158) R5 Frame(CFA_Y, -7)
          CFI (cfiCond158) R6 Frame(CFA_Y, -6)
          CFI (cfiCond158) R7 Frame(CFA_Y, -5)
          CFI (cfiCond158) R8 Frame(CFA_Y, -4)
          CFI (cfiCond158) R9 Frame(CFA_Y, -3)
          CFI (cfiCond158) R10 Frame(CFA_Y, -2)
          CFI (cfiCond158) R11 Frame(CFA_Y, -1)
          CFI (cfiCond158) CFA_SP SP+4
          CFI (cfiCond158) CFA_Y Y+12
          CFI Block cfiPicker159 Using cfiCommon1
          CFI (cfiPicker159) NoFunction
          CFI (cfiPicker159) Picker
        MUL     R16, R19
        MOV     R19, R0
        MUL     R16, R18
        MOV     R18, R0
        ADD     R19, R1
        MUL     R16, R17
        MOV     R17, R0
        ADD     R18, R1
        RET
          CFI EndBlock cfiCond155
          CFI EndBlock cfiCond156
          CFI EndBlock cfiCond157
          CFI EndBlock cfiCond158
          CFI EndBlock cfiPicker159
//  130 

        RSEG CODE:CODE:NOROOT(1)
//  131     __monitor void addCounterHour(unsigned short _inCnt, unsigned short _outCnt, unsigned short _noSensorSec)
??addCounterHour:
          CFI Block cfiBlock160 Using cfiCommon0
          CFI Function ??addCounterHour
//  132     {
        RCALL   ?Subroutine33
//  133       curPeriod.InCntHour += _inCnt;
??CrossCallReturnLabel_198:
        LDD     R22, Z+4
        LDD     R23, Z+5
        ADD     R22, R16
        ADC     R23, R17
        STD     Z+4, R22
        STD     Z+5, R23
//  134       curPeriod.OutCntHour += _outCnt;
        LDD     R16, Z+6
        LDD     R17, Z+7
        ADD     R16, R18
        ADC     R17, R19
        STD     Z+6, R16
        STD     Z+7, R17
//  135       curPeriod.NoSensorSecHour += _noSensorSec;
        LDD     R16, Z+8
        LDD     R17, Z+9
        ADD     R16, R20
        ADC     R17, R21
        STD     Z+8, R16
        STD     Z+9, R17
//  136 
//  137       if (curPeriod.NoSensorSecHour > 3600)
        CPI     R16, 17
        LDI     R18, 14
        SBCI    R17, 14
        BRCS    ??addCounterHour_1
//  138       {
//  139         curPeriod.NoSensorSecHour = 3600;
        LDI     R16, 16
        STD     Z+8, R16
        STD     Z+9, R18
//  140       }
//  141     }
??addCounterHour_1:
        OUT     0x3F, R0
        RET
          CFI EndBlock cfiBlock160
//  142 

        RSEG CODE:CODE:NOROOT(1)
//  143     __monitor void addCounterDay(unsigned short _inCnt, unsigned short _outCnt, unsigned short _noSensorSec)
??addCounterDay:
          CFI Block cfiBlock161 Using cfiCommon0
          CFI Function ??addCounterDay
//  144     {
        RCALL   ?Subroutine33
//  145       curPeriod.InCntDay += _inCnt;
??CrossCallReturnLabel_199:
        LDD     R22, Z+14
        LDD     R23, Z+15
        ADD     R22, R16
        ADC     R23, R17
        STD     Z+14, R22
        STD     Z+15, R23
//  146       curPeriod.OutCntDay += _outCnt;
        LDD     R16, Z+16
        LDD     R17, Z+17
        ADD     R16, R18
        ADC     R17, R19
        STD     Z+16, R16
        STD     Z+17, R17
//  147       curPeriod.NoSensorSecDay += _noSensorSec;
        LDI     R22, 0
        RCALL   ?Subroutine81
??CrossCallReturnLabel_129:
        RCALL   ?Subroutine40
??CrossCallReturnLabel_57:
        STD     Z+18, R16
        STD     Z+19, R17
        STD     Z+20, R18
        STD     Z+21, R19
//  148 
//  149       if (curPeriod.NoSensorSecDay > 86400)
        CPI     R16, 129
        SBCI    R17, 81
        LDI     R20, 1
        SBCI    R18, 1
        SBCI    R19, 0
        BRCS    ??addCounterDay_1
//  150       {
//  151         curPeriod.NoSensorSecDay = 86400;
        LDI     R16, 128
        LDI     R17, 81
        STD     Z+18, R16
        STD     Z+19, R17
        STD     Z+20, R20
        STD     Z+21, R22
//  152       }
//  153     }
??addCounterDay_1:
        OUT     0x3F, R0
        RET
          CFI EndBlock cfiBlock161

        RSEG CODE:CODE:NOROOT(1)
?Subroutine33:
          CFI Block cfiCond162 Using cfiCommon0
          CFI Function ??addCounterHour
          CFI Conditional ??CrossCallReturnLabel_198
          CFI CFA_SP SP+4
          CFI Block cfiCond163 Using cfiCommon0
          CFI (cfiCond163) Function ??addCounterDay
          CFI (cfiCond163) Conditional ??CrossCallReturnLabel_199
          CFI (cfiCond163) CFA_SP SP+4
          CFI Block cfiCond164 Using cfiCommon0
          CFI (cfiCond164) Function ??setTotals
          CFI (cfiCond164) Conditional ??CrossCallReturnLabel_200
          CFI (cfiCond164) CFA_SP SP+4
          CFI Block cfiPicker165 Using cfiCommon1
          CFI (cfiPicker165) NoFunction
          CFI (cfiPicker165) Picker
        IN      R0, 0x3F
          CFI EndBlock cfiCond162
          CFI EndBlock cfiCond163
          CFI EndBlock cfiCond164
          CFI EndBlock cfiPicker165
        REQUIRE ??Subroutine101_0
        ;               // Fall through to label ??Subroutine101_0

        RSEG CODE:CODE:NOROOT(1)
??Subroutine101_0:
          CFI Block cfiCond166 Using cfiCommon0
          CFI Function ??resetData
          CFI Conditional ??CrossCallReturnLabel_201
          CFI R24 Frame(CFA_Y, -1)
          CFI CFA_SP SP+4
          CFI CFA_Y Y+1
          CFI Block cfiCond167 Using cfiCommon0
          CFI (cfiCond167) Function ??addCounterHour
          CFI (cfiCond167) Conditional ??CrossCallReturnLabel_198
          CFI (cfiCond167) CFA_SP SP+4
          CFI Block cfiCond168 Using cfiCommon0
          CFI (cfiCond168) Function ??addCounterDay
          CFI (cfiCond168) Conditional ??CrossCallReturnLabel_199
          CFI (cfiCond168) CFA_SP SP+4
          CFI Block cfiCond169 Using cfiCommon0
          CFI (cfiCond169) Function ??setTotals
          CFI (cfiCond169) Conditional ??CrossCallReturnLabel_200
          CFI (cfiCond169) CFA_SP SP+4
          CFI Block cfiPicker170 Using cfiCommon1
          CFI (cfiPicker170) NoFunction
          CFI (cfiPicker170) Picker
        CLI
        LDI     R30, LOW(??curPeriod)
        LDI     R31, (??curPeriod) >> 8
        RET
          CFI EndBlock cfiCond166
          CFI EndBlock cfiCond167
          CFI EndBlock cfiCond168
          CFI EndBlock cfiCond169
          CFI EndBlock cfiPicker170
//  154 

        RSEG CODE:CODE:NOROOT(1)
//  155     __monitor void addCounterMonth(unsigned short _inCnt, unsigned short _outCnt)
??addCounterMonth:
          CFI Block cfiBlock171 Using cfiCommon0
          CFI Function ??addCounterMonth
//  156     {
        IN      R23, 0x3F
        CLI
//  157       curPeriod.InCntMonth += _inCnt;
        LDI     R22, 0
        RCALL   ?Subroutine37
??CrossCallReturnLabel_47:
        LDD     R0, Z+24
        LDD     R1, Z+25
        LDD     R2, Z+26
        LDD     R3, Z+27
        ADD     R0, R16
        ADC     R1, R17
        ADC     R2, R22
        ADC     R3, R22
        STD     Z+24, R0
        STD     Z+25, R1
        STD     Z+26, R2
        STD     Z+27, R3
//  158       curPeriod.OutCntMonth += _outCnt;
        MOVW    R21:R20, R19:R18
        RCALL   ?Subroutine82
??CrossCallReturnLabel_131:
        RCALL   ?Subroutine40
??CrossCallReturnLabel_58:
        STD     Z+28, R16
        STD     Z+29, R17
        STD     Z+30, R18
        STD     Z+31, R19
//  159     }
        OUT     0x3F, R23
        RET
          CFI EndBlock cfiBlock171

        RSEG CODE:CODE:NOROOT(1)
?Subroutine40:
          CFI Block cfiCond172 Using cfiCommon0
          CFI Function ??addCounterDay
          CFI Conditional ??CrossCallReturnLabel_57
          CFI CFA_SP SP+4
          CFI Block cfiCond173 Using cfiCommon0
          CFI (cfiCond173) Function ??addCounterMonth
          CFI (cfiCond173) Conditional ??CrossCallReturnLabel_58
          CFI (cfiCond173) CFA_SP SP+4
          CFI Block cfiPicker174 Using cfiCommon1
          CFI (cfiPicker174) NoFunction
          CFI (cfiPicker174) Picker
        ADD     R16, R20
        ADC     R17, R21
        ADC     R18, R22
        ADC     R19, R22
        RET
          CFI EndBlock cfiCond172
          CFI EndBlock cfiCond173
          CFI EndBlock cfiPicker174
//  160 

        RSEG CODE:CODE:NOROOT(1)
//  161     __monitor void addCounter(unsigned short _inCnt, unsigned short _outCnt, unsigned short _noSensorSec)
??addCounter:
          CFI Block cfiBlock175 Using cfiCommon0
          CFI Function ??addCounter
//  162     {
        FUNCALL ??addCounter, ??addCounterHour
        LOCFRAME CSTACK, 9, STACK
        LOCFRAME RSTACK, 2, STACK
        ARGFRAME RSTACK, 0, STACK
        FUNCALL ??addCounter, ??addCounterDay
        LOCFRAME CSTACK, 9, STACK
        LOCFRAME RSTACK, 2, STACK
        ARGFRAME RSTACK, 0, STACK
        FUNCALL ??addCounter, ??addCounterMonth
        LOCFRAME CSTACK, 9, STACK
        LOCFRAME RSTACK, 2, STACK
        ARGFRAME RSTACK, 0, STACK
        ST      -Y, R7
          CFI R7 Frame(CFA_Y, -1)
          CFI CFA_Y Y+1
        ST      -Y, R6
          CFI R6 Frame(CFA_Y, -2)
          CFI CFA_Y Y+2
        RCALL   ?Subroutine74
          CFI R24 Frame(CFA_Y, -8)
          CFI R25 Frame(CFA_Y, -7)
          CFI R26 Frame(CFA_Y, -6)
          CFI R27 Frame(CFA_Y, -5)
          CFI R4 Frame(CFA_Y, -4)
          CFI R5 Frame(CFA_Y, -3)
          CFI CFA_Y Y+8
??CrossCallReturnLabel_205:
        IN      R7, 0x3F
        REQUIRE ?Register_R4_is_cg_reg
        REQUIRE ?Register_R5_is_cg_reg
        REQUIRE ?Register_R6_is_cg_reg
        REQUIRE ?Register_R7_is_cg_reg
        CLI
        MOVW    R5:R4, R17:R16
        MOVW    R25:R24, R19:R18
        MOVW    R27:R26, R21:R20
//  163       addCounterHour(_inCnt, _outCnt, _noSensorSec);
        RCALL   ??addCounterHour
//  164       addCounterDay(_inCnt, _outCnt, _noSensorSec);
        MOVW    R21:R20, R27:R26
        MOVW    R19:R18, R25:R24
        MOVW    R17:R16, R5:R4
        RCALL   ??addCounterDay
//  165       addCounterMonth(_inCnt, _outCnt);
        MOVW    R19:R18, R25:R24
        MOVW    R17:R16, R5:R4
        RCALL   ??addCounterMonth
//  166 
//  167       totalInCnt += _inCnt;
        CLR     R6
        RCALL   ?Subroutine37
??CrossCallReturnLabel_48:
        RCALL   ?Subroutine44
??CrossCallReturnLabel_64:
        ADD     R16, R4
        ADC     R17, R5
        ADC     R18, R6
        ADC     R19, R6
        RCALL   ?Subroutine45
//  168       totalOutCnt += _outCnt;
??CrossCallReturnLabel_66:
        LDD     R16, Z+36
        LDD     R17, Z+37
        LDD     R18, Z+38
        LDD     R19, Z+39
        ADD     R16, R24
        ADC     R17, R25
        ADC     R18, R6
        ADC     R19, R6
        STD     Z+36, R16
        STD     Z+37, R17
        STD     Z+38, R18
        STD     Z+39, R19
//  169     }
        OUT     0x3F, R7
        RCALL   ?Subroutine73
          CFI R24 SameValue
          CFI R25 SameValue
          CFI R26 SameValue
          CFI R27 SameValue
          CFI R4 SameValue
          CFI R5 SameValue
          CFI CFA_Y Y+2
??CrossCallReturnLabel_112:
        LD      R6, Y+
          CFI R6 SameValue
          CFI CFA_Y Y+1
        LD      R7, Y+
          CFI R7 SameValue
          CFI CFA_Y Y+0
        RET
          CFI EndBlock cfiBlock175

        RSEG CODE:CODE:NOROOT(1)
?Subroutine74:
          CFI Block cfiCond176 Using cfiCommon0
          CFI Function ??getPeriodNumDay
          CFI Conditional ??CrossCallReturnLabel_0
          CFI R6 Frame(CFA_Y, -6)
          CFI R7 Frame(CFA_Y, -5)
          CFI R8 Frame(CFA_Y, -4)
          CFI R9 Frame(CFA_Y, -3)
          CFI R10 Frame(CFA_Y, -2)
          CFI R11 Frame(CFA_Y, -1)
          CFI CFA_SP SP+4
          CFI CFA_Y Y+6
          CFI Block cfiCond177 Using cfiCommon0
          CFI (cfiCond177) Function ??getRTCDateTimeDay
          CFI (cfiCond177) Conditional ??CrossCallReturnLabel_1
          CFI (cfiCond177) R6 Frame(CFA_Y, -10)
          CFI (cfiCond177) R7 Frame(CFA_Y, -9)
          CFI (cfiCond177) R8 Frame(CFA_Y, -8)
          CFI (cfiCond177) R9 Frame(CFA_Y, -7)
          CFI (cfiCond177) R10 Frame(CFA_Y, -6)
          CFI (cfiCond177) R11 Frame(CFA_Y, -5)
          CFI (cfiCond177) R12 Frame(CFA_Y, -4)
          CFI (cfiCond177) R13 Frame(CFA_Y, -3)
          CFI (cfiCond177) R14 Frame(CFA_Y, -2)
          CFI (cfiCond177) R15 Frame(CFA_Y, -1)
          CFI (cfiCond177) CFA_SP SP+4
          CFI (cfiCond177) CFA_Y Y+10
          CFI Block cfiCond178 Using cfiCommon0
          CFI (cfiCond178) Function ??getCurPeriodsNum
          CFI (cfiCond178) Conditional ??CrossCallReturnLabel_2
          CFI (cfiCond178) R6 Frame(CFA_Y, -6)
          CFI (cfiCond178) R7 Frame(CFA_Y, -5)
          CFI (cfiCond178) R8 Frame(CFA_Y, -4)
          CFI (cfiCond178) R9 Frame(CFA_Y, -3)
          CFI (cfiCond178) R10 Frame(CFA_Y, -2)
          CFI (cfiCond178) R11 Frame(CFA_Y, -1)
          CFI (cfiCond178) CFA_SP SP+4
          CFI (cfiCond178) CFA_Y Y+6
          CFI Block cfiCond179 Using cfiCommon0
          CFI (cfiCond179) Function ??getRTCDateTimeHour
          CFI (cfiCond179) Conditional ??CrossCallReturnLabel_204
          CFI (cfiCond179) CFA_SP SP+4
          CFI Block cfiCond180 Using cfiCommon0
          CFI (cfiCond180) Function ??addCounter
          CFI (cfiCond180) Conditional ??CrossCallReturnLabel_205
          CFI (cfiCond180) R6 Frame(CFA_Y, -2)
          CFI (cfiCond180) R7 Frame(CFA_Y, -1)
          CFI (cfiCond180) CFA_SP SP+4
          CFI (cfiCond180) CFA_Y Y+2
          CFI Block cfiPicker181 Using cfiCommon1
          CFI (cfiPicker181) NoFunction
          CFI (cfiPicker181) Picker
        ST      -Y, R5
          CFI (cfiCond176) R5 Frame(CFA_Y, -7)
          CFI (cfiCond176) CFA_Y Y+7
          CFI (cfiCond177) R5 Frame(CFA_Y, -11)
          CFI (cfiCond177) CFA_Y Y+11
          CFI (cfiCond178) R5 Frame(CFA_Y, -7)
          CFI (cfiCond178) CFA_Y Y+7
          CFI (cfiCond179) R5 Frame(CFA_Y, -1)
          CFI (cfiCond179) CFA_Y Y+1
          CFI (cfiCond180) R5 Frame(CFA_Y, -3)
          CFI (cfiCond180) CFA_Y Y+3
          CFI (cfiPicker181) R5 Frame(CFA_Y, -7)
        ST      -Y, R4
          CFI EndBlock cfiCond176
          CFI EndBlock cfiCond177
          CFI EndBlock cfiCond178
          CFI EndBlock cfiCond179
          CFI EndBlock cfiCond180
          CFI EndBlock cfiPicker181
        REQUIRE ?Subroutine93
        ;               // Fall through to label ?Subroutine93

        RSEG CODE:CODE:NOROOT(1)
?Subroutine93:
          CFI Block cfiCond182 Using cfiCommon0
          CFI Function ??getPeriodNumDay
          CFI Conditional ??CrossCallReturnLabel_0
          CFI R4 Frame(CFA_Y, -8)
          CFI R5 Frame(CFA_Y, -7)
          CFI R6 Frame(CFA_Y, -6)
          CFI R7 Frame(CFA_Y, -5)
          CFI R8 Frame(CFA_Y, -4)
          CFI R9 Frame(CFA_Y, -3)
          CFI R10 Frame(CFA_Y, -2)
          CFI R11 Frame(CFA_Y, -1)
          CFI CFA_SP SP+4
          CFI CFA_Y Y+8
          CFI Block cfiCond183 Using cfiCommon0
          CFI (cfiCond183) Function ??getRTCDateTimeDay
          CFI (cfiCond183) Conditional ??CrossCallReturnLabel_1
          CFI (cfiCond183) R4 Frame(CFA_Y, -12)
          CFI (cfiCond183) R5 Frame(CFA_Y, -11)
          CFI (cfiCond183) R6 Frame(CFA_Y, -10)
          CFI (cfiCond183) R7 Frame(CFA_Y, -9)
          CFI (cfiCond183) R8 Frame(CFA_Y, -8)
          CFI (cfiCond183) R9 Frame(CFA_Y, -7)
          CFI (cfiCond183) R10 Frame(CFA_Y, -6)
          CFI (cfiCond183) R11 Frame(CFA_Y, -5)
          CFI (cfiCond183) R12 Frame(CFA_Y, -4)
          CFI (cfiCond183) R13 Frame(CFA_Y, -3)
          CFI (cfiCond183) R14 Frame(CFA_Y, -2)
          CFI (cfiCond183) R15 Frame(CFA_Y, -1)
          CFI (cfiCond183) CFA_SP SP+4
          CFI (cfiCond183) CFA_Y Y+12
          CFI Block cfiCond184 Using cfiCommon0
          CFI (cfiCond184) Function ??getCurPeriodsNum
          CFI (cfiCond184) Conditional ??CrossCallReturnLabel_2
          CFI (cfiCond184) R4 Frame(CFA_Y, -8)
          CFI (cfiCond184) R5 Frame(CFA_Y, -7)
          CFI (cfiCond184) R6 Frame(CFA_Y, -6)
          CFI (cfiCond184) R7 Frame(CFA_Y, -5)
          CFI (cfiCond184) R8 Frame(CFA_Y, -4)
          CFI (cfiCond184) R9 Frame(CFA_Y, -3)
          CFI (cfiCond184) R10 Frame(CFA_Y, -2)
          CFI (cfiCond184) R11 Frame(CFA_Y, -1)
          CFI (cfiCond184) CFA_SP SP+4
          CFI (cfiCond184) CFA_Y Y+8
          CFI Block cfiCond185 Using cfiCommon0
          CFI (cfiCond185) Function ??getRTCDateTimeHour
          CFI (cfiCond185) Conditional ??CrossCallReturnLabel_204
          CFI (cfiCond185) R4 Frame(CFA_Y, -2)
          CFI (cfiCond185) R5 Frame(CFA_Y, -1)
          CFI (cfiCond185) CFA_SP SP+4
          CFI (cfiCond185) CFA_Y Y+2
          CFI Block cfiCond186 Using cfiCommon0
          CFI (cfiCond186) Function ??addCounter
          CFI (cfiCond186) Conditional ??CrossCallReturnLabel_205
          CFI (cfiCond186) R4 Frame(CFA_Y, -4)
          CFI (cfiCond186) R5 Frame(CFA_Y, -3)
          CFI (cfiCond186) R6 Frame(CFA_Y, -2)
          CFI (cfiCond186) R7 Frame(CFA_Y, -1)
          CFI (cfiCond186) CFA_SP SP+4
          CFI (cfiCond186) CFA_Y Y+4
          CFI Block cfiCond187 Using cfiCommon0
          CFI (cfiCond187) Function ??operationLoadSave
          CFI (cfiCond187) Conditional ??CrossCallReturnLabel_203, ??CrossCallReturnLabel_3
          CFI (cfiCond187) CFA_SP SP+6
          CFI Block cfiCond188 Using cfiCommon0
          CFI (cfiCond188) Function ??operationStatistic
          CFI (cfiCond188) Conditional ??CrossCallReturnLabel_203, ??CrossCallReturnLabel_4
          CFI (cfiCond188) CFA_SP SP+6
          CFI Block cfiPicker189 Using cfiCommon1
          CFI (cfiPicker189) NoFunction
          CFI (cfiPicker189) Picker
        ST      -Y, R27
          CFI EndBlock cfiCond182
          CFI EndBlock cfiCond183
          CFI EndBlock cfiCond184
          CFI EndBlock cfiCond185
          CFI EndBlock cfiCond186
          CFI EndBlock cfiCond187
          CFI EndBlock cfiCond188
          CFI EndBlock cfiPicker189
        REQUIRE ??Subroutine102_0
        ;               // Fall through to label ??Subroutine102_0

        RSEG CODE:CODE:NOROOT(1)
??Subroutine102_0:
          CFI Block cfiCond190 Using cfiCommon0
          CFI Function ??init
          CFI Conditional ??CrossCallReturnLabel_202
          CFI CFA_SP SP+4
          CFI Block cfiCond191 Using cfiCommon0
          CFI (cfiCond191) Function ??getPeriodNumDay
          CFI (cfiCond191) Conditional ??CrossCallReturnLabel_0
          CFI (cfiCond191) R27 Frame(CFA_Y, -9)
          CFI (cfiCond191) R4 Frame(CFA_Y, -8)
          CFI (cfiCond191) R5 Frame(CFA_Y, -7)
          CFI (cfiCond191) R6 Frame(CFA_Y, -6)
          CFI (cfiCond191) R7 Frame(CFA_Y, -5)
          CFI (cfiCond191) R8 Frame(CFA_Y, -4)
          CFI (cfiCond191) R9 Frame(CFA_Y, -3)
          CFI (cfiCond191) R10 Frame(CFA_Y, -2)
          CFI (cfiCond191) R11 Frame(CFA_Y, -1)
          CFI (cfiCond191) CFA_SP SP+4
          CFI (cfiCond191) CFA_Y Y+9
          CFI Block cfiCond192 Using cfiCommon0
          CFI (cfiCond192) Function ??getRTCDateTimeDay
          CFI (cfiCond192) Conditional ??CrossCallReturnLabel_1
          CFI (cfiCond192) R27 Frame(CFA_Y, -13)
          CFI (cfiCond192) R4 Frame(CFA_Y, -12)
          CFI (cfiCond192) R5 Frame(CFA_Y, -11)
          CFI (cfiCond192) R6 Frame(CFA_Y, -10)
          CFI (cfiCond192) R7 Frame(CFA_Y, -9)
          CFI (cfiCond192) R8 Frame(CFA_Y, -8)
          CFI (cfiCond192) R9 Frame(CFA_Y, -7)
          CFI (cfiCond192) R10 Frame(CFA_Y, -6)
          CFI (cfiCond192) R11 Frame(CFA_Y, -5)
          CFI (cfiCond192) R12 Frame(CFA_Y, -4)
          CFI (cfiCond192) R13 Frame(CFA_Y, -3)
          CFI (cfiCond192) R14 Frame(CFA_Y, -2)
          CFI (cfiCond192) R15 Frame(CFA_Y, -1)
          CFI (cfiCond192) CFA_SP SP+4
          CFI (cfiCond192) CFA_Y Y+13
          CFI Block cfiCond193 Using cfiCommon0
          CFI (cfiCond193) Function ??getCurPeriodsNum
          CFI (cfiCond193) Conditional ??CrossCallReturnLabel_2
          CFI (cfiCond193) R27 Frame(CFA_Y, -9)
          CFI (cfiCond193) R4 Frame(CFA_Y, -8)
          CFI (cfiCond193) R5 Frame(CFA_Y, -7)
          CFI (cfiCond193) R6 Frame(CFA_Y, -6)
          CFI (cfiCond193) R7 Frame(CFA_Y, -5)
          CFI (cfiCond193) R8 Frame(CFA_Y, -4)
          CFI (cfiCond193) R9 Frame(CFA_Y, -3)
          CFI (cfiCond193) R10 Frame(CFA_Y, -2)
          CFI (cfiCond193) R11 Frame(CFA_Y, -1)
          CFI (cfiCond193) CFA_SP SP+4
          CFI (cfiCond193) CFA_Y Y+9
          CFI Block cfiCond194 Using cfiCommon0
          CFI (cfiCond194) Function ??getRTCDateTimeHour
          CFI (cfiCond194) Conditional ??CrossCallReturnLabel_204
          CFI (cfiCond194) R27 Frame(CFA_Y, -3)
          CFI (cfiCond194) R4 Frame(CFA_Y, -2)
          CFI (cfiCond194) R5 Frame(CFA_Y, -1)
          CFI (cfiCond194) CFA_SP SP+4
          CFI (cfiCond194) CFA_Y Y+3
          CFI Block cfiCond195 Using cfiCommon0
          CFI (cfiCond195) Function ??addCounter
          CFI (cfiCond195) Conditional ??CrossCallReturnLabel_205
          CFI (cfiCond195) R27 Frame(CFA_Y, -5)
          CFI (cfiCond195) R4 Frame(CFA_Y, -4)
          CFI (cfiCond195) R5 Frame(CFA_Y, -3)
          CFI (cfiCond195) R6 Frame(CFA_Y, -2)
          CFI (cfiCond195) R7 Frame(CFA_Y, -1)
          CFI (cfiCond195) CFA_SP SP+4
          CFI (cfiCond195) CFA_Y Y+5
          CFI Block cfiCond196 Using cfiCommon0
          CFI (cfiCond196) Function ??operationLoadSave
          CFI (cfiCond196) Conditional ??CrossCallReturnLabel_203, ??CrossCallReturnLabel_3
          CFI (cfiCond196) R27 Frame(CFA_Y, -1)
          CFI (cfiCond196) CFA_SP SP+6
          CFI (cfiCond196) CFA_Y Y+1
          CFI Block cfiCond197 Using cfiCommon0
          CFI (cfiCond197) Function ??operationStatistic
          CFI (cfiCond197) Conditional ??CrossCallReturnLabel_203, ??CrossCallReturnLabel_4
          CFI (cfiCond197) R27 Frame(CFA_Y, -1)
          CFI (cfiCond197) CFA_SP SP+6
          CFI (cfiCond197) CFA_Y Y+1
          CFI Block cfiPicker198 Using cfiCommon1
          CFI (cfiPicker198) NoFunction
          CFI (cfiPicker198) Picker
        ST      -Y, R26
          CFI (cfiCond190) R26 Frame(CFA_Y, -1)
          CFI (cfiCond190) CFA_Y Y+1
          CFI (cfiCond191) R26 Frame(CFA_Y, -10)
          CFI (cfiCond191) CFA_Y Y+10
          CFI (cfiCond192) R26 Frame(CFA_Y, -14)
          CFI (cfiCond192) CFA_Y Y+14
          CFI (cfiCond193) R26 Frame(CFA_Y, -10)
          CFI (cfiCond193) CFA_Y Y+10
          CFI (cfiCond194) R26 Frame(CFA_Y, -4)
          CFI (cfiCond194) CFA_Y Y+4
          CFI (cfiCond195) R26 Frame(CFA_Y, -6)
          CFI (cfiCond195) CFA_Y Y+6
          CFI (cfiCond196) R26 Frame(CFA_Y, -2)
          CFI (cfiCond196) CFA_Y Y+2
          CFI (cfiCond197) R26 Frame(CFA_Y, -2)
          CFI (cfiCond197) CFA_Y Y+2
          CFI (cfiPicker198) R26 Frame(CFA_Y, -10)
        ST      -Y, R25
          CFI (cfiCond190) R25 Frame(CFA_Y, -2)
          CFI (cfiCond190) CFA_Y Y+2
          CFI (cfiCond191) R25 Frame(CFA_Y, -11)
          CFI (cfiCond191) CFA_Y Y+11
          CFI (cfiCond192) R25 Frame(CFA_Y, -15)
          CFI (cfiCond192) CFA_Y Y+15
          CFI (cfiCond193) R25 Frame(CFA_Y, -11)
          CFI (cfiCond193) CFA_Y Y+11
          CFI (cfiCond194) R25 Frame(CFA_Y, -5)
          CFI (cfiCond194) CFA_Y Y+5
          CFI (cfiCond195) R25 Frame(CFA_Y, -7)
          CFI (cfiCond195) CFA_Y Y+7
          CFI (cfiCond196) R25 Frame(CFA_Y, -3)
          CFI (cfiCond196) CFA_Y Y+3
          CFI (cfiCond197) R25 Frame(CFA_Y, -3)
          CFI (cfiCond197) CFA_Y Y+3
          CFI (cfiPicker198) R25 Frame(CFA_Y, -11)
        ST      -Y, R24
          CFI (cfiCond190) R24 Frame(CFA_Y, -3)
          CFI (cfiCond190) CFA_Y Y+3
          CFI (cfiCond191) R24 Frame(CFA_Y, -12)
          CFI (cfiCond191) CFA_Y Y+12
          CFI (cfiCond192) R24 Frame(CFA_Y, -16)
          CFI (cfiCond192) CFA_Y Y+16
          CFI (cfiCond193) R24 Frame(CFA_Y, -12)
          CFI (cfiCond193) CFA_Y Y+12
          CFI (cfiCond194) R24 Frame(CFA_Y, -6)
          CFI (cfiCond194) CFA_Y Y+6
          CFI (cfiCond195) R24 Frame(CFA_Y, -8)
          CFI (cfiCond195) CFA_Y Y+8
          CFI (cfiCond196) R24 Frame(CFA_Y, -4)
          CFI (cfiCond196) CFA_Y Y+4
          CFI (cfiCond197) R24 Frame(CFA_Y, -4)
          CFI (cfiCond197) CFA_Y Y+4
          CFI (cfiPicker198) R24 Frame(CFA_Y, -12)
        RET
          CFI EndBlock cfiCond190
          CFI EndBlock cfiCond191
          CFI EndBlock cfiCond192
          CFI EndBlock cfiCond193
          CFI EndBlock cfiCond194
          CFI EndBlock cfiCond195
          CFI EndBlock cfiCond196
          CFI EndBlock cfiCond197
          CFI EndBlock cfiPicker198
//  170 

        RSEG CODE:CODE:NOROOT(1)
//  171     __monitor void setTotals(unsigned long _totalIn, unsigned long _totalOut)
??setTotals:
          CFI Block cfiBlock199 Using cfiCommon0
          CFI Function ??setTotals
//  172     {
        RCALL   ?Subroutine33
//  173       totalInCnt = _totalIn;
??CrossCallReturnLabel_200:
        RCALL   ?Subroutine45
//  174       totalOutCnt = _totalOut;
??CrossCallReturnLabel_67:
        STD     Z+36, R20
        STD     Z+37, R21
        STD     Z+38, R22
        STD     Z+39, R23
//  175     }
        OUT     0x3F, R0
        RET
          CFI EndBlock cfiBlock199

        RSEG CODE:CODE:NOROOT(1)
?Subroutine45:
          CFI Block cfiCond200 Using cfiCommon0
          CFI Function ??addCounter
          CFI Conditional ??CrossCallReturnLabel_66
          CFI R24 Frame(CFA_Y, -8)
          CFI R25 Frame(CFA_Y, -7)
          CFI R26 Frame(CFA_Y, -6)
          CFI R27 Frame(CFA_Y, -5)
          CFI R4 Frame(CFA_Y, -4)
          CFI R5 Frame(CFA_Y, -3)
          CFI R6 Frame(CFA_Y, -2)
          CFI R7 Frame(CFA_Y, -1)
          CFI CFA_SP SP+4
          CFI CFA_Y Y+8
          CFI Block cfiCond201 Using cfiCommon0
          CFI (cfiCond201) Function ??setTotals
          CFI (cfiCond201) Conditional ??CrossCallReturnLabel_67
          CFI (cfiCond201) CFA_SP SP+4
          CFI Block cfiPicker202 Using cfiCommon1
          CFI (cfiPicker202) NoFunction
          CFI (cfiPicker202) Picker
        STD     Z+32, R16
        STD     Z+33, R17
        STD     Z+34, R18
        STD     Z+35, R19
        RET
          CFI EndBlock cfiCond200
          CFI EndBlock cfiCond201
          CFI EndBlock cfiPicker202
//  176 

        RSEG CODE:CODE:NOROOT(1)
//  177     void scheduleCounterOperation(TCounterStatus _operation, unsigned char _subStatusSet)
??scheduleCounterOperation:
          CFI Block cfiBlock203 Using cfiCommon0
          CFI Function ??scheduleCounterOperation
//  178     {
//  179       counterStatus = _operation;
        RCALL   ?Subroutine37
??CrossCallReturnLabel_49:
        STD     Z+43, R16
//  180       counterSubStatusSet = _subStatusSet;
        STD     Z+44, R17
//  181       counterOperationStatus = CounterOperationStatus_Scheduling;
        LDI     R16, 0
        STD     Z+45, R16
//  182       tryNum = 0;
        STD     Z+46, R16
//  183     }
        RET
          CFI EndBlock cfiBlock203
//  184 

        RSEG CODE:CODE:NOROOT(1)
//  185     __monitor void init()
??init:
          CFI Block cfiBlock204 Using cfiCommon0
          CFI Function ??init
//  186     {
        FUNCALL ??init, memset
        LOCFRAME CSTACK, 3, STACK
        LOCFRAME RSTACK, 2, STACK
        ARGFRAME RSTACK, 0, STACK
        FUNCALL ??init, memset
        LOCFRAME CSTACK, 3, STACK
        LOCFRAME RSTACK, 2, STACK
        ARGFRAME RSTACK, 0, STACK
        FUNCALL ??init, ??getCurPeriodsNum
        LOCFRAME CSTACK, 3, STACK
        LOCFRAME RSTACK, 2, STACK
        ARGFRAME RSTACK, 0, STACK
        RCALL   ??Subroutine102_0
          CFI R24 Frame(CFA_Y, -3)
          CFI R25 Frame(CFA_Y, -2)
          CFI R26 Frame(CFA_Y, -1)
          CFI CFA_Y Y+3
??CrossCallReturnLabel_202:
        IN      R26, 0x3F
        CLI
//  187       memset(&prevPeriod, 0, sizeof(TCounterPeriodData));
        RCALL   ?Subroutine47
??CrossCallReturnLabel_68:
        LDI     R16, LOW(??prevPeriod)
        LDI     R17, (??prevPeriod) >> 8
        CALL    memset
//  188       memset(&curPeriod, 0, sizeof(TCounterPeriodData));
        LDI     R24, LOW(??curPeriod)
        LDI     R25, (??curPeriod) >> 8
        RCALL   ?Subroutine47
??CrossCallReturnLabel_69:
        MOVW    R17:R16, R25:R24
        CALL    memset
//  189 
//  190       getCurPeriodsNum(&(curPeriod.periodNumHour), &(curPeriod.periodNumDay), &(curPeriod.periodNumMonth));
        LDI     R20, ((??curPeriod + 22) & 0xff) & 0xFF
        LDI     R21, (((??curPeriod + 22) >> 8) & 0xff) & 0xFF
        ADIW    R25:R24, 10
        MOVW    R19:R18, R25:R24
        RCALL   ??getCurPeriodsNum
//  191 
//  192       updateCounter = CounterStatisticType_None;
        LDI     R16, 0
        STS     (??curPeriod + 42), R16
//  193       scheduleCounterOperation(CounterStatus_Load, CounterStatisticType_Hour | CounterStatisticType_Day | CounterStatisticType_Month);
        LDI     R16, 1
        STS     (??curPeriod + 43), R16
        LDI     R16, 7
        STS     (??curPeriod + 44), R16
        RCALL   ?Subroutine42
//  194     }
??CrossCallReturnLabel_60:
        OUT     0x3F, R26
        LD      R24, Y+
          CFI R24 SameValue
          CFI CFA_Y Y+2
        LD      R25, Y+
          CFI R25 SameValue
          CFI CFA_Y Y+1
        LD      R26, Y+
          CFI R26 SameValue
          CFI CFA_Y Y+0
        RET
          CFI EndBlock cfiBlock204

        RSEG CODE:CODE:NOROOT(1)
?Subroutine47:
          CFI Block cfiCond205 Using cfiCommon0
          CFI Function ??init
          CFI Conditional ??CrossCallReturnLabel_68
          CFI R24 Frame(CFA_Y, -3)
          CFI R25 Frame(CFA_Y, -2)
          CFI R26 Frame(CFA_Y, -1)
          CFI CFA_SP SP+4
          CFI CFA_Y Y+3
          CFI Block cfiCond206 Using cfiCommon0
          CFI (cfiCond206) Function ??init
          CFI (cfiCond206) Conditional ??CrossCallReturnLabel_69
          CFI (cfiCond206) R24 Frame(CFA_Y, -3)
          CFI (cfiCond206) R25 Frame(CFA_Y, -2)
          CFI (cfiCond206) R26 Frame(CFA_Y, -1)
          CFI (cfiCond206) CFA_SP SP+4
          CFI (cfiCond206) CFA_Y Y+3
          CFI Block cfiPicker207 Using cfiCommon1
          CFI (cfiPicker207) NoFunction
          CFI (cfiPicker207) Picker
        LDI     R20, 32
        LDI     R21, 0
        LDI     R18, 0
        LDI     R19, 0
        RET
          CFI EndBlock cfiCond205
          CFI EndBlock cfiCond206
          CFI EndBlock cfiPicker207
//  195 

        RSEG CODE:CODE:NOROOT(1)
//  196     __monitor bool isUpdateCounter()
??isUpdateCounter:
          CFI Block cfiBlock208 Using cfiCommon0
          CFI Function ??isUpdateCounter
//  197     {
        IN      R17, 0x3F
        CLI
//  198       return updateCounter != CounterStatisticType_None;
        LDS     R16, (??curPeriod + 42)
        TST     R16
        BREQ    ??isUpdateCounter_1
        LDI     R16, 1
        RJMP    ??isUpdateCounter_2
??isUpdateCounter_1:
        LDI     R16, 0
??isUpdateCounter_2:
        OUT     0x3F, R17
        RET
          CFI EndBlock cfiBlock208
//  199     }
//  200 

        RSEG CODE:CODE:NOROOT(1)
//  201     __monitor void setUpdateCounter()
??setUpdateCounter:
          CFI Block cfiBlock209 Using cfiCommon0
          CFI Function ??setUpdateCounter
//  202     {
        IN      R17, 0x3F
        CLI
//  203       updateCounter = CounterStatisticType_Hour | CounterStatisticType_Day | CounterStatisticType_Month;
        LDI     R16, 7
        STS     (??curPeriod + 42), R16
//  204     }
        OUT     0x3F, R17
        RET
          CFI EndBlock cfiBlock209
//  205 

        RSEG CODE:CODE:NOROOT(1)
//  206     __monitor void resetData()
??resetData:
          CFI Block cfiBlock210 Using cfiCommon0
          CFI Function ??resetData
//  207     {
        FUNCALL ??resetData, ??setUpdateCounter
        LOCFRAME CSTACK, 1, STACK
        LOCFRAME RSTACK, 2, STACK
        ARGFRAME RSTACK, 0, STACK
        ST      -Y, R24
          CFI R24 Frame(CFA_Y, -1)
          CFI CFA_Y Y+1
        IN      R24, 0x3F
        RCALL   ??Subroutine101_0
//  208       curPeriod.InCntHour = 0;
??CrossCallReturnLabel_201:
        LDI     R16, 0
        STD     Z+4, R16
        STD     Z+5, R16
//  209       curPeriod.OutCntHour = 0;
        STD     Z+6, R16
        STD     Z+7, R16
//  210       curPeriod.NoSensorSecHour = 0;
        STD     Z+8, R16
        STD     Z+9, R16
//  211 
//  212       curPeriod.InCntDay = 0;
        RCALL   ?Subroutine38
//  213       curPeriod.OutCntDay = 0;
//  214       curPeriod.NoSensorSecDay = 0;
//  215 
//  216       curPeriod.InCntMonth = 0;
??CrossCallReturnLabel_53:
        STD     Z+24, R16
        STD     Z+25, R16
        STD     Z+26, R16
        STD     Z+27, R16
//  217       curPeriod.OutCntMonth = 0;
        STD     Z+28, R16
        STD     Z+29, R16
        STD     Z+30, R16
        STD     Z+31, R16
//  218 
//  219       totalInCnt = 0;
        STD     Z+32, R16
        STD     Z+33, R16
        STD     Z+34, R16
        STD     Z+35, R16
//  220       totalOutCnt = 0;
        STD     Z+36, R16
        STD     Z+37, R16
        STD     Z+38, R16
        STD     Z+39, R16
//  221 
//  222       setUpdateCounter();
        RCALL   ??setUpdateCounter
//  223     }
        OUT     0x3F, R24
        LD      R24, Y+
          CFI R24 SameValue
          CFI CFA_Y Y+0
        RET
          CFI EndBlock cfiBlock210
//  224 

        RSEG CODE:CODE:NOROOT(1)
//  225     __monitor void saveCounter()
??saveCounter:
          CFI Block cfiBlock211 Using cfiCommon0
          CFI Function ??saveCounter
//  226     {
        FUNCALL ??saveCounter, ??saveTotalsInOut
        LOCFRAME CSTACK, 13, STACK
        LOCFRAME RSTACK, 2, STACK
        ARGFRAME RSTACK, 0, STACK
        FUNCALL ??saveCounter, ??getCurPeriodsNum
        LOCFRAME CSTACK, 13, STACK
        LOCFRAME RSTACK, 2, STACK
        ARGFRAME RSTACK, 0, STACK
        ST      -Y, R27
          CFI R27 Frame(CFA_Y, -1)
          CFI CFA_Y Y+1
        ST      -Y, R26
          CFI R26 Frame(CFA_Y, -2)
          CFI CFA_Y Y+2
        ST      -Y, R24
          CFI R24 Frame(CFA_Y, -3)
          CFI CFA_Y Y+3
        IN      R24, 0x3F
        CLI
        SBIW    R29:R28, 10
          CFI CFA_Y Y+13
//  227       DeviceManager::saveTotalsInOut(totalInCnt, totalOutCnt);
        LDI     R26, LOW(??curPeriod)
        LDI     R27, (??curPeriod) >> 8
        MOVW    R31:R30, R27:R26
        LDD     R20, Z+36
        LDD     R21, Z+37
        LDD     R22, Z+38
        LDD     R23, Z+39
        RCALL   ?Subroutine44
??CrossCallReturnLabel_65:
        CALL    ??saveTotalsInOut
//  228 
//  229       unsigned long curPeriodNumHour;
//  230       unsigned long curPeriodNumDay;
//  231       unsigned short curPeriodNumMonth;
//  232 
//  233       getCurPeriodsNum(&curPeriodNumHour, &curPeriodNumDay, &curPeriodNumMonth);
        MOVW    R21:R20, R29:R28
        MOVW    R19:R18, R29:R28
        SUBI    R18, 254
        SBCI    R19, 255
        MOVW    R17:R16, R29:R28
        SUBI    R16, 250
        SBCI    R17, 255
        RCALL   ??getCurPeriodsNum
//  234 
//  235       if (curPeriodNumHour == curPeriod.periodNumHour)
        RCALL   ?Subroutine51
??CrossCallReturnLabel_76:
        RCALL   ?Subroutine96
??CrossCallReturnLabel_168:
        SBIW    R27:R26, 3
        RCALL   ?Subroutine50
??CrossCallReturnLabel_72:
        BRNE    ??saveCounter_1
//  236       {
//  237         prevPeriod = curPeriod;
        RCALL   ?Subroutine8
//  238         scheduleCounterOperation(CounterStatus_Save, CounterStatisticType_Hour | CounterStatisticType_Day | CounterStatisticType_Month);
??CrossCallReturnLabel_208:
        LDI     R16, 2
        STD     Z+11, R16
        LDI     R16, 7
        STD     Z+12, R16
        STD     Z+13, R20
        STD     Z+14, R20
//  239       }
        RJMP    ??saveCounter_2
//  240       else if (curPeriodNumHour > curPeriod.periodNumHour)
??saveCounter_1:
        LD      R16, X+
        LD      R17, X+
        LD      R18, X+
        MOV     R19, R23
        SBIW    R27:R26, 3
        LDD     R20, Y+6
        LDD     R21, Y+7
        LDD     R22, Y+8
        LDD     R23, Y+9
        RCALL   ?Subroutine50
??CrossCallReturnLabel_73:
        BRCC    ??saveCounter_3
//  241       {
//  242         prevPeriod = curPeriod;
        RCALL   ?Subroutine8
//  243 
//  244         unsigned char curUpdateCounter = CounterStatisticType_Hour;
??CrossCallReturnLabel_209:
        LDI     R20, 1
//  245 
//  246         curPeriod.periodNumHour = curPeriodNumHour;
        RCALL   ?Subroutine51
??CrossCallReturnLabel_77:
        ST      X+, R16
        ST      X+, R17
        ST      X+, R18
        ST      X, R19
        SBIW    R27:R26, 3
//  247         curPeriod.InCntHour = 0;
        MOVW    R31:R30, R27:R26
        STD     Z+4, R21
        STD     Z+5, R21
//  248         curPeriod.OutCntHour = 0;
        STD     Z+6, R21
        STD     Z+7, R21
//  249         curPeriod.NoSensorSecHour = 0;
        STD     Z+8, R21
        STD     Z+9, R21
//  250 
//  251         if (curPeriod.periodNumDay != curPeriodNumDay)
        RCALL   ?Subroutine53
??CrossCallReturnLabel_78:
        RCALL   ?Subroutine55
??CrossCallReturnLabel_83:
        CP      R16, R0
        CPC     R17, R1
        CPC     R18, R2
        CPC     R19, R3
        BREQ    ??saveCounter_4
//  252         {
//  253           curPeriod.periodNumDay = curPeriodNumDay;
        RCALL   ?Subroutine56
//  254           curPeriod.InCntDay = 0;
??CrossCallReturnLabel_85:
        STD     Z+14, R21
        STD     Z+15, R21
//  255           curPeriod.OutCntDay = 0;
        STD     Z+16, R21
        STD     Z+17, R21
//  256           curPeriod.NoSensorSecDay = 0;
        STD     Z+18, R21
        STD     Z+19, R21
        STD     Z+20, R21
        STD     Z+21, R21
//  257 
//  258           curUpdateCounter |= CounterStatisticType_Day;
        LDI     R20, 3
//  259         }
//  260 
//  261         if (curPeriod.periodNumMonth != curPeriodNumMonth)
??saveCounter_4:
        LDD     R16, Z+22
        LDD     R17, Z+23
        LD      R18, Y
        LDD     R19, Y+1
        CP      R16, R18
        CPC     R17, R19
        BREQ    ??saveCounter_5
//  262         {
//  263           curPeriod.periodNumMonth = curPeriodNumMonth;
        STD     Z+22, R18
        STD     Z+23, R19
//  264           curPeriod.InCntMonth = 0;
        STD     Z+24, R21
        STD     Z+25, R21
        STD     Z+26, R21
        STD     Z+27, R21
//  265           curPeriod.OutCntMonth = 0;
        STD     Z+28, R21
        STD     Z+29, R21
        STD     Z+30, R21
        STD     Z+31, R21
//  266 
//  267           curUpdateCounter |= CounterStatisticType_Month;
        ORI     R20, 0x04
//  268         }
//  269 
//  270         scheduleCounterOperation(CounterStatus_Save, curUpdateCounter);
??saveCounter_5:
        LDI     R16, 2
        STD     Z+43, R16
        STD     Z+44, R20
        STD     Z+45, R21
        STD     Z+46, R21
//  271 
//  272         updateCounter = curUpdateCounter;
        STD     Z+42, R20
        RJMP    ??saveCounter_2
//  273       }
//  274       else
//  275       {
//  276         unsigned char curUpdateCounter = CounterStatisticType_Hour;
??saveCounter_3:
        LDI     R16, 1
//  277 
//  278         curPeriod.periodNumHour = curPeriodNumHour;
        ST      X+, R20
        ST      X+, R21
        ST      X+, R22
        ST      X, R23
        SBIW    R27:R26, 3
//  279 
//  280         if (curPeriod.periodNumDay != curPeriodNumDay)
        MOVW    R31:R30, R27:R26
        RCALL   ?Subroutine57
??CrossCallReturnLabel_87:
        RCALL   ?Subroutine55
??CrossCallReturnLabel_84:
        CP      R20, R0
        CPC     R21, R1
        CPC     R22, R2
        CPC     R23, R3
        BREQ    ??saveCounter_6
//  281         {
//  282           curPeriod.periodNumDay = curPeriodNumDay;
        RCALL   ?Subroutine56
//  283           curUpdateCounter |= CounterStatisticType_Day;
??CrossCallReturnLabel_86:
        LDI     R16, 3
//  284         }
//  285 
//  286         if (curPeriod.periodNumMonth != curPeriodNumMonth)
??saveCounter_6:
        LDD     R18, Z+22
        LDD     R19, Z+23
        LD      R20, Y
        LDD     R21, Y+1
        CP      R18, R20
        CPC     R19, R21
        BREQ    ??saveCounter_7
//  287         {
//  288           curPeriod.periodNumMonth = curPeriodNumMonth;
        STD     Z+22, R20
        STD     Z+23, R21
//  289           curUpdateCounter |= CounterStatisticType_Month;
        ORI     R16, 0x04
//  290         }
//  291 
//  292         scheduleCounterOperation(CounterStatus_Load, curUpdateCounter);
??saveCounter_7:
        LDI     R17, 1
        STD     Z+43, R17
        STD     Z+44, R16
        LDI     R17, 0
        STD     Z+45, R17
        STD     Z+46, R17
//  293 
//  294         updateCounter = curUpdateCounter;
        STD     Z+42, R16
//  295       }
//  296     }
??saveCounter_2:
        ADIW    R29:R28, 10
          CFI CFA_Y Y+3
        OUT     0x3F, R24
        LD      R24, Y+
          CFI R24 SameValue
          CFI CFA_Y Y+2
        LD      R26, Y+
          CFI R26 SameValue
          CFI CFA_Y Y+1
        LD      R27, Y+
          CFI R27 SameValue
          CFI CFA_Y Y+0
        RET
          CFI EndBlock cfiBlock211

        RSEG CODE:CODE:NOROOT(1)
?Subroutine56:
          CFI Block cfiCond212 Using cfiCommon0
          CFI Function ??saveCounter
          CFI Conditional ??CrossCallReturnLabel_85
          CFI R24 Frame(CFA_Y, -3)
          CFI R26 Frame(CFA_Y, -2)
          CFI R27 Frame(CFA_Y, -1)
          CFI CFA_SP SP+4
          CFI CFA_Y Y+13
          CFI Block cfiCond213 Using cfiCommon0
          CFI (cfiCond213) Function ??saveCounter
          CFI (cfiCond213) Conditional ??CrossCallReturnLabel_86
          CFI (cfiCond213) R24 Frame(CFA_Y, -3)
          CFI (cfiCond213) R26 Frame(CFA_Y, -2)
          CFI (cfiCond213) R27 Frame(CFA_Y, -1)
          CFI (cfiCond213) CFA_SP SP+4
          CFI (cfiCond213) CFA_Y Y+13
          CFI Block cfiPicker214 Using cfiCommon1
          CFI (cfiPicker214) NoFunction
          CFI (cfiPicker214) Picker
        STD     Z+10, R0
        STD     Z+11, R1
        STD     Z+12, R2
        STD     Z+13, R3
        RET
          CFI EndBlock cfiCond212
          CFI EndBlock cfiCond213
          CFI EndBlock cfiPicker214

        RSEG CODE:CODE:NOROOT(1)
?Subroutine55:
          CFI Block cfiCond215 Using cfiCommon0
          CFI Function ??saveCounter
          CFI Conditional ??CrossCallReturnLabel_83
          CFI R24 Frame(CFA_Y, -3)
          CFI R26 Frame(CFA_Y, -2)
          CFI R27 Frame(CFA_Y, -1)
          CFI CFA_SP SP+4
          CFI CFA_Y Y+13
          CFI Block cfiCond216 Using cfiCommon0
          CFI (cfiCond216) Function ??saveCounter
          CFI (cfiCond216) Conditional ??CrossCallReturnLabel_84
          CFI (cfiCond216) R24 Frame(CFA_Y, -3)
          CFI (cfiCond216) R26 Frame(CFA_Y, -2)
          CFI (cfiCond216) R27 Frame(CFA_Y, -1)
          CFI (cfiCond216) CFA_SP SP+4
          CFI (cfiCond216) CFA_Y Y+13
          CFI Block cfiPicker217 Using cfiCommon1
          CFI (cfiPicker217) NoFunction
          CFI (cfiPicker217) Picker
        LDD     R0, Y+2
        LDD     R1, Y+3
        LDD     R2, Y+4
        LDD     R3, Y+5
        RET
          CFI EndBlock cfiCond215
          CFI EndBlock cfiCond216
          CFI EndBlock cfiPicker217

        RSEG CODE:CODE:NOROOT(1)
?Subroutine51:
          CFI Block cfiCond218 Using cfiCommon0
          CFI Function ??saveCounter
          CFI Conditional ??CrossCallReturnLabel_76
          CFI R24 Frame(CFA_Y, -3)
          CFI R26 Frame(CFA_Y, -2)
          CFI R27 Frame(CFA_Y, -1)
          CFI CFA_SP SP+4
          CFI CFA_Y Y+13
          CFI Block cfiCond219 Using cfiCommon0
          CFI (cfiCond219) Function ??saveCounter
          CFI (cfiCond219) Conditional ??CrossCallReturnLabel_77
          CFI (cfiCond219) R24 Frame(CFA_Y, -3)
          CFI (cfiCond219) R26 Frame(CFA_Y, -2)
          CFI (cfiCond219) R27 Frame(CFA_Y, -1)
          CFI (cfiCond219) CFA_SP SP+4
          CFI (cfiCond219) CFA_Y Y+13
          CFI Block cfiPicker220 Using cfiCommon1
          CFI (cfiPicker220) NoFunction
          CFI (cfiPicker220) Picker
        LDD     R16, Y+6
        LDD     R17, Y+7
        LDD     R18, Y+8
        LDD     R19, Y+9
        RET
          CFI EndBlock cfiCond218
          CFI EndBlock cfiCond219
          CFI EndBlock cfiPicker220

        RSEG CODE:CODE:NOROOT(1)
?Subroutine44:
          CFI Block cfiCond221 Using cfiCommon0
          CFI Function ??addCounter
          CFI Conditional ??CrossCallReturnLabel_64
          CFI R24 Frame(CFA_Y, -8)
          CFI R25 Frame(CFA_Y, -7)
          CFI R26 Frame(CFA_Y, -6)
          CFI R27 Frame(CFA_Y, -5)
          CFI R4 Frame(CFA_Y, -4)
          CFI R5 Frame(CFA_Y, -3)
          CFI R6 Frame(CFA_Y, -2)
          CFI R7 Frame(CFA_Y, -1)
          CFI CFA_SP SP+4
          CFI CFA_Y Y+8
          CFI Block cfiCond222 Using cfiCommon0
          CFI (cfiCond222) Function ??saveCounter
          CFI (cfiCond222) Conditional ??CrossCallReturnLabel_65
          CFI (cfiCond222) R24 Frame(CFA_Y, -3)
          CFI (cfiCond222) R26 Frame(CFA_Y, -2)
          CFI (cfiCond222) R27 Frame(CFA_Y, -1)
          CFI (cfiCond222) CFA_SP SP+4
          CFI (cfiCond222) CFA_Y Y+13
          CFI Block cfiPicker223 Using cfiCommon1
          CFI (cfiPicker223) NoFunction
          CFI (cfiPicker223) Picker
        LDD     R16, Z+32
        LDD     R17, Z+33
        LDD     R18, Z+34
        LDD     R19, Z+35
        RET
          CFI EndBlock cfiCond221
          CFI EndBlock cfiCond222
          CFI EndBlock cfiPicker223

        RSEG CODE:CODE:NOROOT(1)
?Subroutine8:
          CFI Block cfiCond224 Using cfiCommon0
          CFI Function ??saveCounter
          CFI Conditional ??CrossCallReturnLabel_208
          CFI R24 Frame(CFA_Y, -3)
          CFI R26 Frame(CFA_Y, -2)
          CFI R27 Frame(CFA_Y, -1)
          CFI CFA_SP SP+4
          CFI CFA_Y Y+13
          CFI Block cfiCond225 Using cfiCommon0
          CFI (cfiCond225) Function ??saveCounter
          CFI (cfiCond225) Conditional ??CrossCallReturnLabel_209
          CFI (cfiCond225) R24 Frame(CFA_Y, -3)
          CFI (cfiCond225) R26 Frame(CFA_Y, -2)
          CFI (cfiCond225) R27 Frame(CFA_Y, -1)
          CFI (cfiCond225) CFA_SP SP+4
          CFI (cfiCond225) CFA_Y Y+13
          CFI Block cfiPicker226 Using cfiCommon1
          CFI (cfiPicker226) NoFunction
          CFI (cfiPicker226) Picker
        LDI     R16, LOW(??prevPeriod)
        LDI     R17, (??prevPeriod) >> 8
        MOVW    R31:R30, R27:R26
          CFI EndBlock cfiCond224
          CFI EndBlock cfiCond225
          CFI EndBlock cfiPicker226
        REQUIRE ??Subroutine103_0
        ;               // Fall through to label ??Subroutine103_0

        RSEG CODE:CODE:NOROOT(1)
??Subroutine103_0:
          CFI Block cfiCond227 Using cfiCommon0
          CFI Function ??operationLoadSave
          CFI Conditional ??CrossCallReturnLabel_206
          CFI R24 Frame(CFA_Y, -4)
          CFI R25 Frame(CFA_Y, -3)
          CFI R26 Frame(CFA_Y, -2)
          CFI R27 Frame(CFA_Y, -1)
          CFI CFA_SP SP+4
          CFI CFA_Y Y+4
          CFI Block cfiCond228 Using cfiCommon0
          CFI (cfiCond228) Function ??operationLoadSave
          CFI (cfiCond228) Conditional ??CrossCallReturnLabel_207
          CFI (cfiCond228) R24 Frame(CFA_Y, -4)
          CFI (cfiCond228) R25 Frame(CFA_Y, -3)
          CFI (cfiCond228) R26 Frame(CFA_Y, -2)
          CFI (cfiCond228) R27 Frame(CFA_Y, -1)
          CFI (cfiCond228) CFA_SP SP+4
          CFI (cfiCond228) CFA_Y Y+4
          CFI Block cfiCond229 Using cfiCommon0
          CFI (cfiCond229) Function ??saveCounter
          CFI (cfiCond229) Conditional ??CrossCallReturnLabel_208
          CFI (cfiCond229) R24 Frame(CFA_Y, -3)
          CFI (cfiCond229) R26 Frame(CFA_Y, -2)
          CFI (cfiCond229) R27 Frame(CFA_Y, -1)
          CFI (cfiCond229) CFA_SP SP+4
          CFI (cfiCond229) CFA_Y Y+13
          CFI Block cfiCond230 Using cfiCommon0
          CFI (cfiCond230) Function ??saveCounter
          CFI (cfiCond230) Conditional ??CrossCallReturnLabel_209
          CFI (cfiCond230) R24 Frame(CFA_Y, -3)
          CFI (cfiCond230) R26 Frame(CFA_Y, -2)
          CFI (cfiCond230) R27 Frame(CFA_Y, -1)
          CFI (cfiCond230) CFA_SP SP+4
          CFI (cfiCond230) CFA_Y Y+13
          CFI Block cfiPicker231 Using cfiCommon1
          CFI (cfiPicker231) NoFunction
          CFI (cfiPicker231) Picker
        LDI     R20, 32
        LDI     R21, 0
        JMP     ?ML_SRAM_SRAM_16_L07
          CFI EndBlock cfiCond227
          CFI EndBlock cfiCond228
          CFI EndBlock cfiCond229
          CFI EndBlock cfiCond230
          CFI EndBlock cfiPicker231
//  297 

        RSEG CODE:CODE:NOROOT(1)
//  298     bool enableMemory()
??enableMemory:
          CFI Block cfiBlock232 Using cfiCommon0
          CFI Function ??enableMemory
//  299     {
//  300       if (!MemAT25Driver::enabled())
        FUNCALL ??enableMemory, ??enabled
        LOCFRAME CSTACK, 0, STACK
        LOCFRAME RSTACK, 2, STACK
        ARGFRAME RSTACK, 0, STACK
        FUNCALL ??enableMemory, ??enable
        LOCFRAME CSTACK, 0, STACK
        LOCFRAME RSTACK, 2, STACK
        ARGFRAME RSTACK, 0, STACK
        FUNCALL ??enableMemory, ??ready_1
        LOCFRAME CSTACK, 0, STACK
        LOCFRAME RSTACK, 2, STACK
        ARGFRAME RSTACK, 0, STACK
        RCALL   ?Subroutine86
//  301       {
//  302         MemAT25Driver::enable();
//  303       }
//  304 
//  305       return MemAT25Driver::ready();
??CrossCallReturnLabel_139:
        JMP     ??ready_1
          CFI EndBlock cfiBlock232
//  306     }
//  307 

        RSEG CODE:CODE:NOROOT(1)
//  308     void startOperation(MemAT25Driver::TMemAT25Operation _memOperation, MemAT25Driver::TMemAT25DataSegment _dataSegment)
??startOperation:
//  309     {
//  310       MemAT25Driver::startMemOperation(_memOperation, _dataSegment);
        FUNCALL ??startOperation, ??startMemOperation
        LOCFRAME CSTACK, 0, STACK
        LOCFRAME RSTACK, 2, STACK
        ARGFRAME RSTACK, 0, STACK
        REQUIRE ?Subroutine49
        ;               // Fall through to label ?Subroutine49

        RSEG CODE:CODE:NOROOT(1)
?Subroutine49:
          CFI Block cfiCond233 Using cfiCommon0
          CFI Function ??operationLoadSave
          CFI Conditional ??CrossCallReturnLabel_70
          CFI R24 Frame(CFA_Y, -4)
          CFI R25 Frame(CFA_Y, -3)
          CFI R26 Frame(CFA_Y, -2)
          CFI R27 Frame(CFA_Y, -1)
          CFI CFA_SP SP+4
          CFI CFA_Y Y+4
          CFI Block cfiCond234 Using cfiCommon0
          CFI (cfiCond234) Function ??operationStatistic
          CFI (cfiCond234) Conditional ??CrossCallReturnLabel_71
          CFI (cfiCond234) R24 Frame(CFA_Y, -4)
          CFI (cfiCond234) R25 Frame(CFA_Y, -3)
          CFI (cfiCond234) R26 Frame(CFA_Y, -2)
          CFI (cfiCond234) R27 Frame(CFA_Y, -1)
          CFI (cfiCond234) CFA_SP SP+4
          CFI (cfiCond234) CFA_Y Y+4
          CFI Block cfiBlock235 Using cfiCommon0
          CFI (cfiBlock235) NoFunction
          CFI Block cfiPicker236 Using cfiCommon1
          CFI (cfiPicker236) NoFunction
          CFI (cfiPicker236) Picker
        CALL    ??startMemOperation
//  311       counterOperationStatus = CounterOperationStatus_Waiting;
        LDI     R16, 1
        STS     (??curPeriod + 45), R16
//  312     }
        RET
          CFI EndBlock cfiCond233
          CFI EndBlock cfiCond234
          CFI EndBlock cfiBlock235
          CFI EndBlock cfiPicker236
//  313 

        RSEG CODE:CODE:NOROOT(1)
//  314     void finishOperation()
??finishOperation:
//  315     {
//  316       counterStatus = CounterStatus_Normal;
        FUNCALL ??finishOperation, ??enabled
        LOCFRAME CSTACK, 0, STACK
        LOCFRAME RSTACK, 2, STACK
        ARGFRAME RSTACK, 0, STACK
        FUNCALL ??finishOperation, ??disable
        LOCFRAME CSTACK, 0, STACK
        LOCFRAME RSTACK, 2, STACK
        ARGFRAME RSTACK, 0, STACK
        REQUIRE ?Subroutine41
        ;               // Fall through to label ?Subroutine41

        RSEG CODE:CODE:NOROOT(1)
?Subroutine41:
          CFI Block cfiCond237 Using cfiCommon0
          CFI Function ??operationStatistic
          CFI Conditional ??CrossCallReturnLabel_59
          CFI R24 Frame(CFA_Y, -4)
          CFI R25 Frame(CFA_Y, -3)
          CFI R26 Frame(CFA_Y, -2)
          CFI R27 Frame(CFA_Y, -1)
          CFI CFA_SP SP+4
          CFI CFA_Y Y+4
          CFI Block cfiBlock238 Using cfiCommon0
          CFI (cfiBlock238) NoFunction
          CFI Block cfiPicker239 Using cfiCommon1
          CFI (cfiPicker239) NoFunction
          CFI (cfiPicker239) Picker
        RCALL   ?Subroutine80
//  317 
//  318       if (MemAT25Driver::enabled())
??CrossCallReturnLabel_127:
        BREQ    ??CrossCallReturnLabel_150
//  319       {
//  320         MemAT25Driver::disable();
        RCALL   ?Subroutine89
//  321       }
//  322     }
??CrossCallReturnLabel_150:
        RET
          CFI EndBlock cfiCond237
          CFI EndBlock cfiBlock238
          CFI EndBlock cfiPicker239
//  323 

        RSEG CODE:CODE:NOROOT(1)
//  324     void retryOperation()
??retryOperation:
          CFI Block cfiBlock240 Using cfiCommon0
          CFI Function ??retryOperation
//  325     {
//  326       tryNum++;
        FUNCALL ??retryOperation, ??enabled
        LOCFRAME CSTACK, 0, STACK
        LOCFRAME RSTACK, 2, STACK
        ARGFRAME RSTACK, 0, STACK
        FUNCALL ??retryOperation, ??disable
        LOCFRAME CSTACK, 0, STACK
        LOCFRAME RSTACK, 2, STACK
        ARGFRAME RSTACK, 0, STACK
        RCALL   ?Subroutine37
??CrossCallReturnLabel_50:
        LDD     R16, Z+46
        INC     R16
        STD     Z+46, R16
//  327 
//  328       if (tryNum <= COUNTER_MAX_RW_TRY_NUM)
        CPI     R16, 4
        LDI     R16, 0
        BRCC    ??retryOperation_1
//  329       {
//  330         counterOperationStatus = CounterOperationStatus_Scheduling;
        STD     Z+45, R16
        RET
//  331       }
//  332       else
//  333       {
//  334         finishOperation();
??retryOperation_1:
        RCALL   ?Subroutine46
//  335       }
??CrossCallReturnLabel_166:
        BREQ    ??CrossCallReturnLabel_151
        RCALL   ?Subroutine89
//  336     }
??CrossCallReturnLabel_151:
        RET
          CFI EndBlock cfiBlock240

        RSEG CODE:CODE:NOROOT(1)
?Subroutine89:
          CFI Block cfiCond241 Using cfiCommon0
          CFI Function ??finishOperation
          CFI Conditional ??CrossCallReturnLabel_150
          CFI CFA_SP SP+4
          CFI Block cfiCond242 Using cfiCommon0
          CFI (cfiCond242) Function ??operationStatistic
          CFI (cfiCond242) Conditional ??CrossCallReturnLabel_150, ??CrossCallReturnLabel_59
          CFI (cfiCond242) R24 Frame(CFA_Y, -4)
          CFI (cfiCond242) R25 Frame(CFA_Y, -3)
          CFI (cfiCond242) R26 Frame(CFA_Y, -2)
          CFI (cfiCond242) R27 Frame(CFA_Y, -1)
          CFI (cfiCond242) CFA_SP SP+6
          CFI (cfiCond242) CFA_Y Y+4
          CFI Block cfiCond243 Using cfiCommon0
          CFI (cfiCond243) Function ??retryOperation
          CFI (cfiCond243) Conditional ??CrossCallReturnLabel_151
          CFI (cfiCond243) CFA_SP SP+4
          CFI Block cfiCond244 Using cfiCommon0
          CFI (cfiCond244) Function ??operationLoadSave
          CFI (cfiCond244) Conditional ??CrossCallReturnLabel_152
          CFI (cfiCond244) R24 Frame(CFA_Y, -4)
          CFI (cfiCond244) R25 Frame(CFA_Y, -3)
          CFI (cfiCond244) R26 Frame(CFA_Y, -2)
          CFI (cfiCond244) R27 Frame(CFA_Y, -1)
          CFI (cfiCond244) CFA_SP SP+4
          CFI (cfiCond244) CFA_Y Y+4
          CFI Block cfiPicker245 Using cfiCommon1
          CFI (cfiPicker245) NoFunction
          CFI (cfiPicker245) Picker
        JMP     ??disable
          CFI EndBlock cfiCond241
          CFI EndBlock cfiCond242
          CFI EndBlock cfiCond243
          CFI EndBlock cfiCond244
          CFI EndBlock cfiPicker245

        RSEG CODE:CODE:NOROOT(1)
?Subroutine37:
          CFI Block cfiCond246 Using cfiCommon0
          CFI Function ??addCounterMonth
          CFI Conditional ??CrossCallReturnLabel_47
          CFI CFA_SP SP+4
          CFI Block cfiCond247 Using cfiCommon0
          CFI (cfiCond247) Function ??addCounter
          CFI (cfiCond247) Conditional ??CrossCallReturnLabel_48
          CFI (cfiCond247) R24 Frame(CFA_Y, -8)
          CFI (cfiCond247) R25 Frame(CFA_Y, -7)
          CFI (cfiCond247) R26 Frame(CFA_Y, -6)
          CFI (cfiCond247) R27 Frame(CFA_Y, -5)
          CFI (cfiCond247) R4 Frame(CFA_Y, -4)
          CFI (cfiCond247) R5 Frame(CFA_Y, -3)
          CFI (cfiCond247) R6 Frame(CFA_Y, -2)
          CFI (cfiCond247) R7 Frame(CFA_Y, -1)
          CFI (cfiCond247) CFA_SP SP+4
          CFI (cfiCond247) CFA_Y Y+8
          CFI Block cfiCond248 Using cfiCommon0
          CFI (cfiCond248) Function ??scheduleCounterOperation
          CFI (cfiCond248) Conditional ??CrossCallReturnLabel_49
          CFI (cfiCond248) CFA_SP SP+4
          CFI Block cfiCond249 Using cfiCommon0
          CFI (cfiCond249) Function ??retryOperation
          CFI (cfiCond249) Conditional ??CrossCallReturnLabel_50
          CFI (cfiCond249) CFA_SP SP+4
          CFI Block cfiCond250 Using cfiCommon0
          CFI (cfiCond250) Function ??scheduleStatisticOperation
          CFI (cfiCond250) Conditional ??CrossCallReturnLabel_51
          CFI (cfiCond250) CFA_SP SP+4
          CFI Block cfiCond251 Using cfiCommon0
          CFI (cfiCond251) Function ??run
          CFI (cfiCond251) Conditional ??CrossCallReturnLabel_52
          CFI (cfiCond251) CFA_SP SP+4
          CFI Block cfiPicker252 Using cfiCommon1
          CFI (cfiPicker252) NoFunction
          CFI (cfiPicker252) Picker
        LDI     R30, LOW(??curPeriod)
        LDI     R31, (??curPeriod) >> 8
        RET
          CFI EndBlock cfiCond246
          CFI EndBlock cfiCond247
          CFI EndBlock cfiCond248
          CFI EndBlock cfiCond249
          CFI EndBlock cfiCond250
          CFI EndBlock cfiCond251
          CFI EndBlock cfiPicker252
//  337 

        RSEG CODE:CODE:NOROOT(1)
//  338     void operationLoadSave()
??operationLoadSave:
          CFI Block cfiBlock253 Using cfiCommon0
          CFI Function ??operationLoadSave
//  339     {
        FUNCALL ??operationLoadSave, ??enabled
        LOCFRAME CSTACK, 4, STACK
        LOCFRAME RSTACK, 2, STACK
        ARGFRAME RSTACK, 0, STACK
        FUNCALL ??operationLoadSave, ??disable
        LOCFRAME CSTACK, 4, STACK
        LOCFRAME RSTACK, 2, STACK
        ARGFRAME RSTACK, 0, STACK
        FUNCALL ??operationLoadSave, ??enabled
        LOCFRAME CSTACK, 4, STACK
        LOCFRAME RSTACK, 2, STACK
        ARGFRAME RSTACK, 0, STACK
        FUNCALL ??operationLoadSave, ??enable
        LOCFRAME CSTACK, 4, STACK
        LOCFRAME RSTACK, 2, STACK
        ARGFRAME RSTACK, 0, STACK
        FUNCALL ??operationLoadSave, ??ready_1
        LOCFRAME CSTACK, 4, STACK
        LOCFRAME RSTACK, 2, STACK
        ARGFRAME RSTACK, 0, STACK
        FUNCALL ??operationLoadSave, ??startMemOperation
        LOCFRAME CSTACK, 4, STACK
        LOCFRAME RSTACK, 2, STACK
        ARGFRAME RSTACK, 0, STACK
        FUNCALL ??operationLoadSave, ??ready_1
        LOCFRAME CSTACK, 4, STACK
        LOCFRAME RSTACK, 2, STACK
        ARGFRAME RSTACK, 0, STACK
        FUNCALL ??operationLoadSave, ??addCounterHour
        LOCFRAME CSTACK, 4, STACK
        LOCFRAME RSTACK, 2, STACK
        ARGFRAME RSTACK, 0, STACK
        FUNCALL ??operationLoadSave, ??addCounterDay
        LOCFRAME CSTACK, 4, STACK
        LOCFRAME RSTACK, 2, STACK
        ARGFRAME RSTACK, 0, STACK
        FUNCALL ??operationLoadSave, ??addCounterMonth
        LOCFRAME CSTACK, 4, STACK
        LOCFRAME RSTACK, 2, STACK
        ARGFRAME RSTACK, 0, STACK
        FUNCALL ??operationLoadSave, ??enabled
        LOCFRAME CSTACK, 4, STACK
        LOCFRAME RSTACK, 2, STACK
        ARGFRAME RSTACK, 0, STACK
        FUNCALL ??operationLoadSave, ??retryOperation
        LOCFRAME CSTACK, 4, STACK
        LOCFRAME RSTACK, 2, STACK
        ARGFRAME RSTACK, 0, STACK
        RCALL   ?Subroutine1
          CFI R24 Frame(CFA_Y, -4)
          CFI R25 Frame(CFA_Y, -3)
          CFI R26 Frame(CFA_Y, -2)
          CFI R27 Frame(CFA_Y, -1)
          CFI CFA_Y Y+4
//  340       if (counterOperationStatus == CounterOperationStatus_Scheduling)
??CrossCallReturnLabel_3:
        BRNE    ??operationLoadSave_1
//  341       {
//  342         if (counterSubStatusSet == CounterStatisticType_None)
        LDS     R16, (??curPeriod + 44)
        TST     R16
        BRNE    ??operationLoadSave_2
//  343         {
//  344           finishOperation();
        RCALL   ?Subroutine80
//  345         }
??CrossCallReturnLabel_128:
        BRNE    $+2+2
        RJMP    ??operationLoadSave_3
??operationLoadSave_4:
        RCALL   ?Subroutine89
??CrossCallReturnLabel_152:
        RJMP    ??operationLoadSave_3
//  346         else
//  347         if (enableMemory())
??operationLoadSave_2:
        RCALL   ?Subroutine48
??CrossCallReturnLabel_146:
        BRNE    $+2+2
        RJMP    ??operationLoadSave_3
//  348         {
//  349           MemAT25Driver::TMemAT25Operation curMemAT25Operation = MemAT25Driver::MemAT25Operation_ReadValue;
        LDI     R18, 0
//  350           MemAT25Driver::TMemAT25DataSegment curMemAT25DataSegment = MemAT25Driver::MemAT25DataSegment_Hour;
        LDI     R22, 0
//  351 
//  352           if (counterStatus == CounterStatus_Load)
        RCALL   ?Subroutine54
??CrossCallReturnLabel_80:
        BRNE    ??operationLoadSave_5
//  353           {
//  354             MemAT25Driver::counterValue = curPeriod;
        LDI     R16, LOW(??counterValue)
        LDI     R17, (??counterValue) >> 8
        MOVW    R31:R30, R25:R24
        RCALL   ??Subroutine103_0
//  355             curMemAT25Operation = MemAT25Driver::MemAT25Operation_ReadValue;
??CrossCallReturnLabel_206:
        RJMP    ??operationLoadSave_6
//  356           }
//  357           else
//  358           {
//  359             MemAT25Driver::counterValue = prevPeriod;
??operationLoadSave_5:
        LDI     R30, LOW(??prevPeriod)
        LDI     R31, (??prevPeriod) >> 8
        LDI     R16, LOW(??counterValue)
        LDI     R17, (??counterValue) >> 8
        RCALL   ??Subroutine103_0
//  360             curMemAT25Operation = MemAT25Driver::MemAT25Operation_WriteValue;
??CrossCallReturnLabel_207:
        LDI     R18, 1
//  361           }
//  362 
//  363           if (counterSubStatusSet & CounterStatisticType_Hour)
??operationLoadSave_6:
        MOVW    R31:R30, R25:R24
        LDD     R16, Z+44
        SBRC    R16, 0
        RJMP    ??operationLoadSave_7
//  364           {
//  365             curMemAT25DataSegment = MemAT25Driver::MemAT25DataSegment_Hour;
//  366           }
//  367           else
//  368           if (counterSubStatusSet & CounterStatisticType_Day)
        SBRS    R16, 1
        RJMP    ??operationLoadSave_8
//  369           {
//  370             curMemAT25DataSegment = MemAT25Driver::MemAT25DataSegment_Day;
        LDI     R22, 1
        RJMP    ??operationLoadSave_7
//  371           }
//  372           else
//  373           if (counterSubStatusSet & CounterStatisticType_Month)
??operationLoadSave_8:
        SBRC    R16, 2
//  374           {
//  375             curMemAT25DataSegment = MemAT25Driver::MemAT25DataSegment_Month;
        LDI     R22, 2
//  376           }
//  377 
//  378           startOperation(curMemAT25Operation, curMemAT25DataSegment);
??operationLoadSave_7:
        MOV     R17, R22
        MOV     R16, R18
        RCALL   ?Subroutine49
//  379         }
//  380       }
??CrossCallReturnLabel_70:
        RJMP    ??operationLoadSave_3
//  381       else
//  382       {
//  383         if (MemAT25Driver::ready())
??operationLoadSave_1:
        RCALL   ?Subroutine87
??CrossCallReturnLabel_141:
        BRNE    $+2+2
        RJMP    ??operationLoadSave_3
//  384         {
//  385           if (MemAT25Driver::operationResult == MemAT25Driver::MemAT25COperationResult_OK)
        LDS     R16, ??operationResult
        CPI     R16, 1
        BREQ    $+2+2
        RJMP    ??operationLoadSave_9
//  386           {
//  387             if (counterSubStatusSet & CounterStatisticType_Hour)
        MOVW    R31:R30, R25:R24
        LDD     R16, Z+44
        SBRS    R16, 0
        RJMP    ??operationLoadSave_10
//  388             {
//  389               if (counterStatus == CounterStatus_Load)
        LDD     R16, Z+43
        CPI     R16, 1
        BRNE    ??operationLoadSave_11
//  390               {
//  391                 curPeriod.periodNumHour = MemAT25Driver::counterValue.periodNumHour;
        LDI     R26, LOW(??counterValue)
        LDI     R27, (??counterValue) >> 8
        RCALL   ?Subroutine79
??CrossCallReturnLabel_124:
        SBIW    R27:R26, 3
        RCALL   ?Subroutine32
//  392                 addCounterHour(MemAT25Driver::counterValue.InCntHour, MemAT25Driver::counterValue.OutCntHour, MemAT25Driver::counterValue.NoSensorSecHour);
??CrossCallReturnLabel_41:
        MOVW    R31:R30, R27:R26
        LDD     R20, Z+8
        LDD     R21, Z+9
        LDD     R18, Z+6
        LDD     R19, Z+7
        LDD     R16, Z+4
        LDD     R17, Z+5
        RCALL   ??addCounterHour
//  393               }
//  394 
//  395               counterSubStatusSet ^= CounterStatisticType_Hour;
??operationLoadSave_11:
        LDI     R16, 1
        RJMP    ??operationLoadSave_12
//  396             }
//  397             else
//  398             if (counterSubStatusSet & CounterStatisticType_Day)
??operationLoadSave_10:
        SBRS    R16, 1
        RJMP    ??operationLoadSave_13
//  399             {
//  400               if (counterStatus == CounterStatus_Load)
        RCALL   ?Subroutine54
??CrossCallReturnLabel_81:
        BRNE    ??operationLoadSave_14
//  401               {
//  402                 curPeriod.periodNumDay = MemAT25Driver::counterValue.periodNumDay;
        RCALL   ?Subroutine59
??CrossCallReturnLabel_92:
        RCALL   ?Subroutine53
??CrossCallReturnLabel_79:
        MOVW    R31:R30, R25:R24
        RCALL   ?Subroutine61
//  403                 addCounterDay(MemAT25Driver::counterValue.InCntDay, MemAT25Driver::counterValue.OutCntDay, MemAT25Driver::counterValue.NoSensorSecDay);
??CrossCallReturnLabel_97:
        RCALL   ?Subroutine59
//  404               }
??CrossCallReturnLabel_93:
        LDD     R20, Z+18
        LDD     R21, Z+19
        LDD     R18, Z+16
        LDD     R19, Z+17
        LDD     R16, Z+14
        LDD     R17, Z+15
        RCALL   ??addCounterDay
//  405 
//  406               counterSubStatusSet ^= CounterStatisticType_Day;
??operationLoadSave_14:
        LDI     R16, 2
        RJMP    ??operationLoadSave_12
//  407             }
//  408             else
//  409             if (counterSubStatusSet & CounterStatisticType_Month)
??operationLoadSave_13:
        SBRS    R16, 2
        RJMP    ??operationLoadSave_15
//  410             {
//  411               if (counterStatus == CounterStatus_Load)
        RCALL   ?Subroutine54
??CrossCallReturnLabel_82:
        BRNE    ??operationLoadSave_16
//  412               {
//  413                 curPeriod.periodNumMonth = MemAT25Driver::counterValue.periodNumMonth;
        RCALL   ?Subroutine59
??CrossCallReturnLabel_94:
        LDD     R16, Z+22
        LDD     R17, Z+23
        MOVW    R31:R30, R25:R24
        STD     Z+22, R16
        STD     Z+23, R17
//  414                 addCounterMonth(MemAT25Driver::counterValue.InCntMonth, MemAT25Driver::counterValue.OutCntMonth);
        RCALL   ?Subroutine59
//  415               }
??CrossCallReturnLabel_95:
        LDD     R18, Z+28
        LDD     R19, Z+29
        LDD     R16, Z+24
        LDD     R17, Z+25
        RCALL   ??addCounterMonth
//  416 
//  417               counterSubStatusSet ^= CounterStatisticType_Month;
??operationLoadSave_16:
        LDI     R16, 4
??operationLoadSave_12:
        MOVW    R31:R30, R25:R24
        LDD     R17, Z+44
        EOR     R17, R16
        STD     Z+44, R17
//  418             }
//  419 
//  420             if (counterSubStatusSet == CounterStatisticType_None)
??operationLoadSave_15:
        LDD     R16, Z+44
        TST     R16
        LDI     R16, 0
        BRNE    ??operationLoadSave_17
//  421             {
//  422               finishOperation();
        RCALL   ?Subroutine46
//  423             }
??CrossCallReturnLabel_167:
        BREQ    $+2+2
        RJMP    ??operationLoadSave_4
        RJMP    ??operationLoadSave_3
//  424             else
//  425             {
//  426               scheduleCounterOperation(counterStatus, counterSubStatusSet);
??operationLoadSave_17:
        STD     Z+45, R16
        STD     Z+46, R16
//  427             }
//  428           }
        RJMP    ??operationLoadSave_3
//  429           else
//  430           {
//  431             retryOperation();
??operationLoadSave_9:
        RCALL   ??retryOperation
//  432           }
//  433         }
//  434       }
//  435     }
??operationLoadSave_3:
        RJMP    ?Subroutine91
          CFI EndBlock cfiBlock253

        RSEG CODE:CODE:NOROOT(1)
?Subroutine80:
          CFI Block cfiCond254 Using cfiCommon0
          CFI Function ??finishOperation
          CFI Conditional ??CrossCallReturnLabel_127
          CFI CFA_SP SP+4
          CFI Block cfiCond255 Using cfiCommon0
          CFI (cfiCond255) Function ??operationStatistic
          CFI (cfiCond255) Conditional ??CrossCallReturnLabel_127, ??CrossCallReturnLabel_59
          CFI (cfiCond255) R24 Frame(CFA_Y, -4)
          CFI (cfiCond255) R25 Frame(CFA_Y, -3)
          CFI (cfiCond255) R26 Frame(CFA_Y, -2)
          CFI (cfiCond255) R27 Frame(CFA_Y, -1)
          CFI (cfiCond255) CFA_SP SP+6
          CFI (cfiCond255) CFA_Y Y+4
          CFI Block cfiCond256 Using cfiCommon0
          CFI (cfiCond256) Function ??operationLoadSave
          CFI (cfiCond256) Conditional ??CrossCallReturnLabel_128
          CFI (cfiCond256) R24 Frame(CFA_Y, -4)
          CFI (cfiCond256) R25 Frame(CFA_Y, -3)
          CFI (cfiCond256) R26 Frame(CFA_Y, -2)
          CFI (cfiCond256) R27 Frame(CFA_Y, -1)
          CFI (cfiCond256) CFA_SP SP+4
          CFI (cfiCond256) CFA_Y Y+4
          CFI Block cfiPicker257 Using cfiCommon1
          CFI (cfiPicker257) NoFunction
          CFI (cfiPicker257) Picker
        LDI     R16, 0
        STS     (??curPeriod + 43), R16
        RJMP    ?Subroutine95
          CFI EndBlock cfiCond254
          CFI EndBlock cfiCond255
          CFI EndBlock cfiCond256
          CFI EndBlock cfiPicker257

        RSEG CODE:CODE:NOROOT(1)
?Subroutine54:
          CFI Block cfiCond258 Using cfiCommon0
          CFI Function ??operationLoadSave
          CFI Conditional ??CrossCallReturnLabel_80
          CFI R24 Frame(CFA_Y, -4)
          CFI R25 Frame(CFA_Y, -3)
          CFI R26 Frame(CFA_Y, -2)
          CFI R27 Frame(CFA_Y, -1)
          CFI CFA_SP SP+4
          CFI CFA_Y Y+4
          CFI Block cfiCond259 Using cfiCommon0
          CFI (cfiCond259) Function ??operationLoadSave
          CFI (cfiCond259) Conditional ??CrossCallReturnLabel_81
          CFI (cfiCond259) R24 Frame(CFA_Y, -4)
          CFI (cfiCond259) R25 Frame(CFA_Y, -3)
          CFI (cfiCond259) R26 Frame(CFA_Y, -2)
          CFI (cfiCond259) R27 Frame(CFA_Y, -1)
          CFI (cfiCond259) CFA_SP SP+4
          CFI (cfiCond259) CFA_Y Y+4
          CFI Block cfiCond260 Using cfiCommon0
          CFI (cfiCond260) Function ??operationLoadSave
          CFI (cfiCond260) Conditional ??CrossCallReturnLabel_82
          CFI (cfiCond260) R24 Frame(CFA_Y, -4)
          CFI (cfiCond260) R25 Frame(CFA_Y, -3)
          CFI (cfiCond260) R26 Frame(CFA_Y, -2)
          CFI (cfiCond260) R27 Frame(CFA_Y, -1)
          CFI (cfiCond260) CFA_SP SP+4
          CFI (cfiCond260) CFA_Y Y+4
          CFI Block cfiPicker261 Using cfiCommon1
          CFI (cfiPicker261) NoFunction
          CFI (cfiPicker261) Picker
        LDS     R16, (??curPeriod + 43)
        CPI     R16, 1
        RET
          CFI EndBlock cfiCond258
          CFI EndBlock cfiCond259
          CFI EndBlock cfiCond260
          CFI EndBlock cfiPicker261

        RSEG CODE:CODE:NOROOT(1)
?Subroutine53:
          CFI Block cfiCond262 Using cfiCommon0
          CFI Function ??saveCounter
          CFI Conditional ??CrossCallReturnLabel_78
          CFI R24 Frame(CFA_Y, -3)
          CFI R26 Frame(CFA_Y, -2)
          CFI R27 Frame(CFA_Y, -1)
          CFI CFA_SP SP+4
          CFI CFA_Y Y+13
          CFI Block cfiCond263 Using cfiCommon0
          CFI (cfiCond263) Function ??operationLoadSave
          CFI (cfiCond263) Conditional ??CrossCallReturnLabel_79
          CFI (cfiCond263) R24 Frame(CFA_Y, -4)
          CFI (cfiCond263) R25 Frame(CFA_Y, -3)
          CFI (cfiCond263) R26 Frame(CFA_Y, -2)
          CFI (cfiCond263) R27 Frame(CFA_Y, -1)
          CFI (cfiCond263) CFA_SP SP+4
          CFI (cfiCond263) CFA_Y Y+4
          CFI Block cfiPicker264 Using cfiCommon1
          CFI (cfiPicker264) NoFunction
          CFI (cfiPicker264) Picker
        LDD     R16, Z+10
        LDD     R17, Z+11
        LDD     R18, Z+12
        LDD     R19, Z+13
        RET
          CFI EndBlock cfiCond262
          CFI EndBlock cfiCond263
          CFI EndBlock cfiPicker264

        RSEG CODE:CODE:NOROOT(1)
?Subroutine46:
          CFI Block cfiCond265 Using cfiCommon0
          CFI Function ??retryOperation
          CFI Conditional ??CrossCallReturnLabel_166
          CFI CFA_SP SP+4
          CFI Block cfiCond266 Using cfiCommon0
          CFI (cfiCond266) Function ??operationLoadSave
          CFI (cfiCond266) Conditional ??CrossCallReturnLabel_167
          CFI (cfiCond266) R24 Frame(CFA_Y, -4)
          CFI (cfiCond266) R25 Frame(CFA_Y, -3)
          CFI (cfiCond266) R26 Frame(CFA_Y, -2)
          CFI (cfiCond266) R27 Frame(CFA_Y, -1)
          CFI (cfiCond266) CFA_SP SP+4
          CFI (cfiCond266) CFA_Y Y+4
          CFI Block cfiPicker267 Using cfiCommon1
          CFI (cfiPicker267) NoFunction
          CFI (cfiPicker267) Picker
        STD     Z+43, R16
          CFI EndBlock cfiCond265
          CFI EndBlock cfiCond266
          CFI EndBlock cfiPicker267
        REQUIRE ?Subroutine95
        ;               // Fall through to label ?Subroutine95

        RSEG CODE:CODE:NOROOT(1)
?Subroutine95:
          CFI Block cfiCond268 Using cfiCommon0
          CFI Function ??finishOperation
          CFI Conditional ??CrossCallReturnLabel_127
          CFI CFA_SP SP+4
          CFI Block cfiCond269 Using cfiCommon0
          CFI (cfiCond269) Function ??operationStatistic
          CFI (cfiCond269) Conditional ??CrossCallReturnLabel_127, ??CrossCallReturnLabel_59
          CFI (cfiCond269) R24 Frame(CFA_Y, -4)
          CFI (cfiCond269) R25 Frame(CFA_Y, -3)
          CFI (cfiCond269) R26 Frame(CFA_Y, -2)
          CFI (cfiCond269) R27 Frame(CFA_Y, -1)
          CFI (cfiCond269) CFA_SP SP+6
          CFI (cfiCond269) CFA_Y Y+4
          CFI Block cfiCond270 Using cfiCommon0
          CFI (cfiCond270) Function ??operationLoadSave
          CFI (cfiCond270) Conditional ??CrossCallReturnLabel_128
          CFI (cfiCond270) R24 Frame(CFA_Y, -4)
          CFI (cfiCond270) R25 Frame(CFA_Y, -3)
          CFI (cfiCond270) R26 Frame(CFA_Y, -2)
          CFI (cfiCond270) R27 Frame(CFA_Y, -1)
          CFI (cfiCond270) CFA_SP SP+4
          CFI (cfiCond270) CFA_Y Y+4
          CFI Block cfiCond271 Using cfiCommon0
          CFI (cfiCond271) Function ??retryOperation
          CFI (cfiCond271) Conditional ??CrossCallReturnLabel_166
          CFI (cfiCond271) CFA_SP SP+4
          CFI Block cfiCond272 Using cfiCommon0
          CFI (cfiCond272) Function ??operationLoadSave
          CFI (cfiCond272) Conditional ??CrossCallReturnLabel_167
          CFI (cfiCond272) R24 Frame(CFA_Y, -4)
          CFI (cfiCond272) R25 Frame(CFA_Y, -3)
          CFI (cfiCond272) R26 Frame(CFA_Y, -2)
          CFI (cfiCond272) R27 Frame(CFA_Y, -1)
          CFI (cfiCond272) CFA_SP SP+4
          CFI (cfiCond272) CFA_Y Y+4
          CFI Block cfiCond273 Using cfiCommon0
          CFI (cfiCond273) Function ??enableMemory
          CFI (cfiCond273) Conditional ??CrossCallReturnLabel_165, ??CrossCallReturnLabel_139
          CFI (cfiCond273) CFA_SP SP+6
          CFI Block cfiCond274 Using cfiCommon0
          CFI (cfiCond274) Function ??operationLoadSave
          CFI (cfiCond274) Conditional ??CrossCallReturnLabel_165, ??CrossCallReturnLabel_140, ??CrossCallReturnLabel_146
          CFI (cfiCond274) R24 Frame(CFA_Y, -4)
          CFI (cfiCond274) R25 Frame(CFA_Y, -3)
          CFI (cfiCond274) R26 Frame(CFA_Y, -2)
          CFI (cfiCond274) R27 Frame(CFA_Y, -1)
          CFI (cfiCond274) CFA_SP SP+8
          CFI (cfiCond274) CFA_Y Y+4
          CFI Block cfiCond275 Using cfiCommon0
          CFI (cfiCond275) Function ??operationStatistic
          CFI (cfiCond275) Conditional ??CrossCallReturnLabel_165, ??CrossCallReturnLabel_140, ??CrossCallReturnLabel_145
          CFI (cfiCond275) R24 Frame(CFA_Y, -4)
          CFI (cfiCond275) R25 Frame(CFA_Y, -3)
          CFI (cfiCond275) R26 Frame(CFA_Y, -2)
          CFI (cfiCond275) R27 Frame(CFA_Y, -1)
          CFI (cfiCond275) CFA_SP SP+8
          CFI (cfiCond275) CFA_Y Y+4
          CFI Block cfiCond276 Using cfiCommon0
          CFI (cfiCond276) Function ??operationStatistic
          CFI (cfiCond276) Conditional ??CrossCallReturnLabel_165, ??CrossCallReturnLabel_140, ??CrossCallReturnLabel_144
          CFI (cfiCond276) R24 Frame(CFA_Y, -4)
          CFI (cfiCond276) R25 Frame(CFA_Y, -3)
          CFI (cfiCond276) R26 Frame(CFA_Y, -2)
          CFI (cfiCond276) R27 Frame(CFA_Y, -1)
          CFI (cfiCond276) CFA_SP SP+8
          CFI (cfiCond276) CFA_Y Y+4
          CFI Block cfiCond277 Using cfiCommon0
          CFI (cfiCond277) Function ??operationStatistic
          CFI (cfiCond277) Conditional ??CrossCallReturnLabel_165, ??CrossCallReturnLabel_140, ??CrossCallReturnLabel_143
          CFI (cfiCond277) R24 Frame(CFA_Y, -4)
          CFI (cfiCond277) R25 Frame(CFA_Y, -3)
          CFI (cfiCond277) R26 Frame(CFA_Y, -2)
          CFI (cfiCond277) R27 Frame(CFA_Y, -1)
          CFI (cfiCond277) CFA_SP SP+8
          CFI (cfiCond277) CFA_Y Y+4
          CFI Block cfiPicker278 Using cfiCommon1
          CFI (cfiPicker278) NoFunction
          CFI (cfiPicker278) Picker
        CALL    ??enabled
        TST     R16
        RET
          CFI EndBlock cfiCond268
          CFI EndBlock cfiCond269
          CFI EndBlock cfiCond270
          CFI EndBlock cfiCond271
          CFI EndBlock cfiCond272
          CFI EndBlock cfiCond273
          CFI EndBlock cfiCond274
          CFI EndBlock cfiCond275
          CFI EndBlock cfiCond276
          CFI EndBlock cfiCond277
          CFI EndBlock cfiPicker278

        RSEG CODE:CODE:NOROOT(1)
?Subroutine32:
          CFI Block cfiCond279 Using cfiCommon0
          CFI Function ??getCurPeriodsNum
          CFI Conditional ??CrossCallReturnLabel_39
          CFI R24 Frame(CFA_Y, -12)
          CFI R25 Frame(CFA_Y, -11)
          CFI R26 Frame(CFA_Y, -10)
          CFI R27 Frame(CFA_Y, -9)
          CFI R4 Frame(CFA_Y, -8)
          CFI R5 Frame(CFA_Y, -7)
          CFI R6 Frame(CFA_Y, -6)
          CFI R7 Frame(CFA_Y, -5)
          CFI R8 Frame(CFA_Y, -4)
          CFI R9 Frame(CFA_Y, -3)
          CFI R10 Frame(CFA_Y, -2)
          CFI R11 Frame(CFA_Y, -1)
          CFI CFA_SP SP+4
          CFI CFA_Y Y+12
          CFI Block cfiCond280 Using cfiCommon0
          CFI (cfiCond280) Function ??getCurPeriodsNum
          CFI (cfiCond280) Conditional ??CrossCallReturnLabel_40
          CFI (cfiCond280) R24 Frame(CFA_Y, -12)
          CFI (cfiCond280) R25 Frame(CFA_Y, -11)
          CFI (cfiCond280) R26 Frame(CFA_Y, -10)
          CFI (cfiCond280) R27 Frame(CFA_Y, -9)
          CFI (cfiCond280) R4 Frame(CFA_Y, -8)
          CFI (cfiCond280) R5 Frame(CFA_Y, -7)
          CFI (cfiCond280) R6 Frame(CFA_Y, -6)
          CFI (cfiCond280) R7 Frame(CFA_Y, -5)
          CFI (cfiCond280) R8 Frame(CFA_Y, -4)
          CFI (cfiCond280) R9 Frame(CFA_Y, -3)
          CFI (cfiCond280) R10 Frame(CFA_Y, -2)
          CFI (cfiCond280) R11 Frame(CFA_Y, -1)
          CFI (cfiCond280) CFA_SP SP+4
          CFI (cfiCond280) CFA_Y Y+12
          CFI Block cfiCond281 Using cfiCommon0
          CFI (cfiCond281) Function ??operationLoadSave
          CFI (cfiCond281) Conditional ??CrossCallReturnLabel_41
          CFI (cfiCond281) R24 Frame(CFA_Y, -4)
          CFI (cfiCond281) R25 Frame(CFA_Y, -3)
          CFI (cfiCond281) R26 Frame(CFA_Y, -2)
          CFI (cfiCond281) R27 Frame(CFA_Y, -1)
          CFI (cfiCond281) CFA_SP SP+4
          CFI (cfiCond281) CFA_Y Y+4
          CFI Block cfiCond282 Using cfiCommon0
          CFI (cfiCond282) Function ??operationStatistic
          CFI (cfiCond282) Conditional ??CrossCallReturnLabel_42
          CFI (cfiCond282) R24 Frame(CFA_Y, -4)
          CFI (cfiCond282) R25 Frame(CFA_Y, -3)
          CFI (cfiCond282) R26 Frame(CFA_Y, -2)
          CFI (cfiCond282) R27 Frame(CFA_Y, -1)
          CFI (cfiCond282) CFA_SP SP+4
          CFI (cfiCond282) CFA_Y Y+4
          CFI Block cfiPicker283 Using cfiCommon1
          CFI (cfiPicker283) NoFunction
          CFI (cfiPicker283) Picker
        ST      Z, R16
        STD     Z+1, R17
        STD     Z+2, R18
        STD     Z+3, R19
        RET
          CFI EndBlock cfiCond279
          CFI EndBlock cfiCond280
          CFI EndBlock cfiCond281
          CFI EndBlock cfiCond282
          CFI EndBlock cfiPicker283
//  436 

        RSEG CODE:CODE:NOROOT(1)
//  437     bool ready()
??ready:
          CFI Block cfiBlock284 Using cfiCommon0
          CFI Function ??ready
//  438     {
//  439       return counterStatus == CounterStatus_Normal;
        LDS     R16, (??curPeriod + 43)
        TST     R16
        BRNE    ??ready_2
        LDI     R16, 1
        RET
??ready_2:
        LDI     R16, 0
        RET
          CFI EndBlock cfiBlock284
//  440     }
//  441 

        RSEG CODE:CODE:NOROOT(1)
//  442     bool scheduleStatisticOperation(TCounterStatisticRecord* _statisticRecord, TCounterStatisticType _statisticType)
??scheduleStatisticOperation:
          CFI Block cfiBlock285 Using cfiCommon0
          CFI Function ??scheduleStatisticOperation
//  443     {
        MOV     R21, R27
        MOV     R22, R26
        MOV     R20, R18
//  444       if (!ready())
        RCALL   ?Subroutine37
??CrossCallReturnLabel_51:
        LDD     R18, Z+43
        TST     R18
        BRNE    ??scheduleStatisticOperation_1
//  445       {
//  446         return false;
//  447       }
//  448 
//  449       curStatisticRecord = _statisticRecord;
        STD     Z+40, R16
        STD     Z+41, R17
//  450       curStatisticRecord->InCnt = 0;
        RCALL   ??Subroutine104_0
??CrossCallReturnLabel_210:
        LDI     R16, 0
        MOVW    R31:R30, R27:R26
        STD     Z+12, R16
        STD     Z+13, R16
        RCALL   ?Subroutine38
//  451       curStatisticRecord->OutCnt = 0;
//  452       curStatisticRecord->NoSensorSec = 0;
??CrossCallReturnLabel_54:
        STD     Z+22, R16
        STD     Z+23, R16
//  453       curStatisticRecord->status = CounterStatisticProcessStatus_Scheduled;
        LDI     R16, 1
        STD     Z+24, R16
//  454 
//  455       if (curStatisticRecord->periodNumFrom > curStatisticRecord->periodNumTo)
        LD      R16, Z
        LDD     R17, Z+1
        LDD     R18, Z+2
        LDD     R19, Z+3
        LDD     R0, Z+4
        LDD     R1, Z+5
        LDD     R2, Z+6
        LDD     R3, Z+7
        CP      R0, R16
        CPC     R1, R17
        CPC     R2, R18
        CPC     R3, R19
        BRCC    ??scheduleStatisticOperation_2
//  456       {
//  457         curStatisticRecord->status = CounterStatisticProcessStatus_Processed;
        LDI     R16, 2
        STD     Z+24, R16
//  458         return true;
        RJMP    ??CrossCallReturnLabel_61
//  459       }
??scheduleStatisticOperation_1:
        LDI     R16, 0
        RJMP    ??scheduleStatisticOperation_3
//  460 
//  461       curStatisticRecord->curPeriodNum = curStatisticRecord->periodNumFrom;
??scheduleStatisticOperation_2:
        RCALL   ?Subroutine36
??CrossCallReturnLabel_45:
        STS     (??curPeriod + 44), R20
        RCALL   ?Subroutine42
//  462 
//  463       scheduleCounterOperation(CounterStatus_GetStatistic, _statisticType);
//  464 
//  465       return true;
??CrossCallReturnLabel_61:
        LDI     R16, 1
??scheduleStatisticOperation_3:
        MOV     R26, R22
        MOV     R27, R21
        RET
          CFI EndBlock cfiBlock285
//  466     }

        RSEG CODE:CODE:NOROOT(1)
?Subroutine42:
          CFI Block cfiCond286 Using cfiCommon0
          CFI Function ??init
          CFI Conditional ??CrossCallReturnLabel_60
          CFI R24 Frame(CFA_Y, -3)
          CFI R25 Frame(CFA_Y, -2)
          CFI R26 Frame(CFA_Y, -1)
          CFI CFA_SP SP+4
          CFI CFA_Y Y+3
          CFI Block cfiCond287 Using cfiCommon0
          CFI (cfiCond287) Function ??scheduleStatisticOperation
          CFI (cfiCond287) Conditional ??CrossCallReturnLabel_61
          CFI (cfiCond287) CFA_SP SP+4
          CFI Block cfiPicker288 Using cfiCommon1
          CFI (cfiPicker288) NoFunction
          CFI (cfiPicker288) Picker
        LDI     R16, 0
        STS     (??curPeriod + 45), R16
        STS     (??curPeriod + 46), R16
        RET
          CFI EndBlock cfiCond286
          CFI EndBlock cfiCond287
          CFI EndBlock cfiPicker288

        RSEG CODE:CODE:NOROOT(1)
?Subroutine38:
          CFI Block cfiCond289 Using cfiCommon0
          CFI Function ??resetData
          CFI Conditional ??CrossCallReturnLabel_53
          CFI R24 Frame(CFA_Y, -1)
          CFI CFA_SP SP+4
          CFI CFA_Y Y+1
          CFI Block cfiCond290 Using cfiCommon0
          CFI (cfiCond290) Function ??scheduleStatisticOperation
          CFI (cfiCond290) Conditional ??CrossCallReturnLabel_54
          CFI (cfiCond290) CFA_SP SP+4
          CFI Block cfiPicker291 Using cfiCommon1
          CFI (cfiPicker291) NoFunction
          CFI (cfiPicker291) Picker
        STD     Z+14, R16
        STD     Z+15, R16
        STD     Z+16, R16
        STD     Z+17, R16
        STD     Z+18, R16
        STD     Z+19, R16
        STD     Z+20, R16
        STD     Z+21, R16
        RET
          CFI EndBlock cfiCond289
          CFI EndBlock cfiCond290
          CFI EndBlock cfiPicker291
//  467 

        RSEG CODE:CODE:NOROOT(1)
//  468     void operationStatistic()
??operationStatistic:
          CFI Block cfiBlock292 Using cfiCommon0
          CFI Function ??operationStatistic
//  469     {
        FUNCALL ??operationStatistic, ??enabled
        LOCFRAME CSTACK, 4, STACK
        LOCFRAME RSTACK, 2, STACK
        ARGFRAME RSTACK, 0, STACK
        FUNCALL ??operationStatistic, ??disable
        LOCFRAME CSTACK, 4, STACK
        LOCFRAME RSTACK, 2, STACK
        ARGFRAME RSTACK, 0, STACK
        FUNCALL ??operationStatistic, ??enabled
        LOCFRAME CSTACK, 4, STACK
        LOCFRAME RSTACK, 2, STACK
        ARGFRAME RSTACK, 0, STACK
        FUNCALL ??operationStatistic, ??enable
        LOCFRAME CSTACK, 4, STACK
        LOCFRAME RSTACK, 2, STACK
        ARGFRAME RSTACK, 0, STACK
        FUNCALL ??operationStatistic, ??ready_1
        LOCFRAME CSTACK, 4, STACK
        LOCFRAME RSTACK, 2, STACK
        ARGFRAME RSTACK, 0, STACK
        FUNCALL ??operationStatistic, ??startMemOperation
        LOCFRAME CSTACK, 4, STACK
        LOCFRAME RSTACK, 2, STACK
        ARGFRAME RSTACK, 0, STACK
        FUNCALL ??operationStatistic, ??enabled
        LOCFRAME CSTACK, 4, STACK
        LOCFRAME RSTACK, 2, STACK
        ARGFRAME RSTACK, 0, STACK
        FUNCALL ??operationStatistic, ??enable
        LOCFRAME CSTACK, 4, STACK
        LOCFRAME RSTACK, 2, STACK
        ARGFRAME RSTACK, 0, STACK
        FUNCALL ??operationStatistic, ??ready_1
        LOCFRAME CSTACK, 4, STACK
        LOCFRAME RSTACK, 2, STACK
        ARGFRAME RSTACK, 0, STACK
        FUNCALL ??operationStatistic, ??startMemOperation
        LOCFRAME CSTACK, 4, STACK
        LOCFRAME RSTACK, 2, STACK
        ARGFRAME RSTACK, 0, STACK
        FUNCALL ??operationStatistic, ??enabled
        LOCFRAME CSTACK, 4, STACK
        LOCFRAME RSTACK, 2, STACK
        ARGFRAME RSTACK, 0, STACK
        FUNCALL ??operationStatistic, ??enable
        LOCFRAME CSTACK, 4, STACK
        LOCFRAME RSTACK, 2, STACK
        ARGFRAME RSTACK, 0, STACK
        FUNCALL ??operationStatistic, ??ready_1
        LOCFRAME CSTACK, 4, STACK
        LOCFRAME RSTACK, 2, STACK
        ARGFRAME RSTACK, 0, STACK
        FUNCALL ??operationStatistic, ??startMemOperation
        LOCFRAME CSTACK, 4, STACK
        LOCFRAME RSTACK, 2, STACK
        ARGFRAME RSTACK, 0, STACK
        FUNCALL ??operationStatistic, ??ready_1
        LOCFRAME CSTACK, 4, STACK
        LOCFRAME RSTACK, 2, STACK
        ARGFRAME RSTACK, 0, STACK
        FUNCALL ??operationStatistic, ??retryOperation
        LOCFRAME CSTACK, 4, STACK
        LOCFRAME RSTACK, 2, STACK
        ARGFRAME RSTACK, 0, STACK
        RCALL   ?Subroutine1
          CFI R24 Frame(CFA_Y, -4)
          CFI R25 Frame(CFA_Y, -3)
          CFI R26 Frame(CFA_Y, -2)
          CFI R27 Frame(CFA_Y, -1)
          CFI CFA_Y Y+4
//  470       if (counterOperationStatus == CounterOperationStatus_Scheduling)
??CrossCallReturnLabel_4:
        BREQ    $+2+2
        RJMP    ??operationStatistic_1
//  471       {
//  472         if (curStatisticRecord->curPeriodNum > curStatisticRecord->periodNumTo)
        RCALL   ?Subroutine60
??CrossCallReturnLabel_211:
        MOVW    R31:R30, R27:R26
        RCALL   ?Subroutine39
??CrossCallReturnLabel_55:
        LDD     R20, Z+4
        LDD     R21, Z+5
        LDD     R22, Z+6
        LDD     R23, Z+7
        CP      R20, R16
        CPC     R21, R17
        CPC     R22, R18
        CPC     R23, R19
        BRCC    ??operationStatistic_2
//  473         {
//  474           finishOperation();
        RCALL   ?Subroutine41
//  475           curStatisticRecord->status = CounterStatisticProcessStatus_Processed;
??CrossCallReturnLabel_59:
        LDI     R16, 2
        RJMP    ??operationStatistic_3
//  476         }
//  477         else
//  478         {
//  479           switch (counterSubStatusSet)
??operationStatistic_2:
        LDS     R20, (??curPeriod + 44)
        DEC     R20
        BREQ    ??operationStatistic_4
        DEC     R20
        BREQ    ??operationStatistic_5
        SUBI    R20, 2
        BREQ    ??operationStatistic_6
        RJMP    ??operationStatistic_7
//  480           {
//  481             case CounterStatisticType_Hour:
//  482               if (curStatisticRecord->curPeriodNum == curPeriod.periodNumHour)
??operationStatistic_4:
        MOVW    R31:R30, R25:R24
        LD      R20, Z
        LDD     R21, Z+1
        LDD     R22, Z+2
        LDD     R23, Z+3
        RCALL   ?Subroutine50
??CrossCallReturnLabel_74:
        BRNE    ??operationStatistic_8
//  483               {
//  484                 curStatisticRecord->InCnt += curPeriod.InCntHour;
        LDD     R16, Z+4
        LDD     R17, Z+5
        RCALL   ?Subroutine19
//  485                 curStatisticRecord->OutCnt += curPeriod.OutCntHour;
//  486                 curStatisticRecord->NoSensorSec += curPeriod.NoSensorSecHour;
//  487 
//  488                 curStatisticRecord->curPeriodNum++;
//  489                 scheduleCounterOperation(CounterStatus_GetStatistic, counterSubStatusSet);
//  490               }
??CrossCallReturnLabel_148:
        LDD     R16, Z+6
        LDD     R17, Z+7
        RCALL   ?Subroutine20
??CrossCallReturnLabel_26:
        RCALL   ?Subroutine26
??CrossCallReturnLabel_159:
        RJMP    ??CrossCallReturnLabel_32
//  491               else
//  492               {
//  493                 if (enableMemory())
??operationStatistic_8:
        RCALL   ?Subroutine48
??CrossCallReturnLabel_145:
        BRNE    $+2+2
        RJMP    ??operationStatistic_7
//  494                 {
//  495                   MemAT25Driver::counterValue.periodNumHour = curStatisticRecord->curPeriodNum;
        RCALL   ?Subroutine34
??CrossCallReturnLabel_43:
        RCALL   ?Subroutine32
//  496                   startOperation(MemAT25Driver::MemAT25Operation_ReadValue, MemAT25Driver::MemAT25DataSegment_Hour);
??CrossCallReturnLabel_42:
        LDI     R17, 0
        RJMP    ??operationStatistic_9
//  497                 }
//  498               }
//  499               break;
//  500 
//  501             case CounterStatisticType_Day:
//  502               if (curStatisticRecord->curPeriodNum == curPeriod.periodNumDay)
??operationStatistic_5:
        MOVW    R31:R30, R25:R24
        RCALL   ?Subroutine57
??CrossCallReturnLabel_88:
        RCALL   ?Subroutine50
??CrossCallReturnLabel_75:
        BRNE    ??operationStatistic_10
//  503               {
//  504                 curStatisticRecord->InCnt += curPeriod.InCntDay;
        LDD     R16, Z+14
        LDD     R17, Z+15
        RCALL   ?Subroutine19
//  505                 curStatisticRecord->OutCnt += curPeriod.OutCntDay;
??CrossCallReturnLabel_149:
        LDD     R16, Z+16
        LDD     R17, Z+17
        RCALL   ?Subroutine20
//  506                 curStatisticRecord->NoSensorSec += curPeriod.NoSensorSecDay;
??CrossCallReturnLabel_27:
        RCALL   ?Subroutine24
??CrossCallReturnLabel_32:
        RCALL   ?Subroutine43
//  507 
//  508                 curStatisticRecord->curPeriodNum++;
??CrossCallReturnLabel_62:
        RJMP    ??CrossCallReturnLabel_154
//  509                 scheduleCounterOperation(CounterStatus_GetStatistic, counterSubStatusSet);
//  510               }
//  511               else
//  512               {
//  513                 if (enableMemory())
??operationStatistic_10:
        RCALL   ?Subroutine48
??CrossCallReturnLabel_144:
        BRNE    $+2+2
        RJMP    ??operationStatistic_7
//  514                 {
//  515                   MemAT25Driver::counterValue.periodNumDay = curStatisticRecord->curPeriodNum;
        RCALL   ?Subroutine34
??CrossCallReturnLabel_44:
        RCALL   ?Subroutine61
//  516                   startOperation(MemAT25Driver::MemAT25Operation_ReadValue, MemAT25Driver::MemAT25DataSegment_Day);
??CrossCallReturnLabel_98:
        LDI     R17, 1
        RJMP    ??operationStatistic_9
//  517                 }
//  518               }
//  519               break;
//  520 
//  521             case CounterStatisticType_Month:
//  522               if (curStatisticRecord->curPeriodNum == curPeriod.periodNumMonth)
??operationStatistic_6:
        MOVW    R31:R30, R25:R24
        LDD     R20, Z+22
        LDD     R21, Z+23
        CP      R16, R20
        CPC     R17, R21
        SBCI    R18, 0
        SBCI    R19, 0
        BRNE    ??operationStatistic_11
//  523               {
//  524                 curStatisticRecord->InCnt += curPeriod.InCntMonth;
        RCALL   ?Subroutine62
??CrossCallReturnLabel_99:
        RCALL   ?Subroutine83
??CrossCallReturnLabel_133:
        RCALL   ?Subroutine77
??CrossCallReturnLabel_119:
        RCALL   ?Subroutine88
//  525                 curStatisticRecord->OutCnt += curPeriod.OutCntMonth;
??CrossCallReturnLabel_147:
        RCALL   ?Subroutine23
//  526 
//  527                 curStatisticRecord->curPeriodNum++;
//  528                 scheduleCounterOperation(CounterStatus_GetStatistic, counterSubStatusSet);
//  529               }
??CrossCallReturnLabel_154:
        RCALL   ?Subroutine39
??CrossCallReturnLabel_56:
        RCALL   ?Subroutine63
??CrossCallReturnLabel_101:
        RCALL   ?Subroutine36
??CrossCallReturnLabel_46:
        LDI     R16, 0
        STS     (??curPeriod + 46), R16
        RJMP    ??operationStatistic_7
//  530               else
//  531               {
//  532                 if (enableMemory())
??operationStatistic_11:
        RCALL   ?Subroutine48
??CrossCallReturnLabel_143:
        BRNE    $+2+2
        RJMP    ??operationStatistic_7
//  533                 {
//  534                   MemAT25Driver::counterValue.periodNumMonth = curStatisticRecord->curPeriodNum;
        RCALL   ?Subroutine60
??CrossCallReturnLabel_212:
        ADIW    R27:R26, 8
        LD      R16, X+
        LD      R17, X+
        RCALL   ?Subroutine59
??CrossCallReturnLabel_96:
        STD     Z+22, R16
        STD     Z+23, R17
//  535                   startOperation(MemAT25Driver::MemAT25Operation_ReadValue, MemAT25Driver::MemAT25DataSegment_Month);
        LDI     R17, 2
??operationStatistic_9:
        LDI     R16, 0
        RCALL   ?Subroutine49
//  536                 }
//  537               }
//  538               break;
//  539           }
//  540         }
//  541       }
??CrossCallReturnLabel_71:
        RJMP    ??operationStatistic_7
//  542       else
//  543       {
//  544         if (MemAT25Driver::ready())
??operationStatistic_1:
        RCALL   ?Subroutine87
??CrossCallReturnLabel_142:
        BREQ    ??operationStatistic_7
//  545         {
//  546           if (MemAT25Driver::operationResult == MemAT25Driver::MemAT25COperationResult_OK)
        LDS     R16, ??operationResult
        CPI     R16, 1
        BRNE    ??operationStatistic_12
//  547           {
//  548             switch (counterSubStatusSet)
        LDS     R16, (??curPeriod + 44)
        DEC     R16
        BREQ    ??operationStatistic_13
        DEC     R16
        BREQ    ??operationStatistic_14
        SUBI    R16, 2
        BREQ    ??operationStatistic_15
        RJMP    ??CrossCallReturnLabel_155
//  549             {
//  550               case CounterStatisticType_Hour:
//  551                 curStatisticRecord->InCnt += MemAT25Driver::counterValue.InCntHour;
??operationStatistic_13:
        RCALL   ?Subroutine58
??CrossCallReturnLabel_89:
        LDD     R16, Z+4
        LDD     R17, Z+5
        RCALL   ?Subroutine21
//  552                 curStatisticRecord->OutCnt += MemAT25Driver::counterValue.OutCntHour;
??CrossCallReturnLabel_28:
        LDD     R16, Z+6
        LDD     R17, Z+7
        RCALL   ?Subroutine22
//  553                 curStatisticRecord->NoSensorSec += MemAT25Driver::counterValue.NoSensorSecHour;
??CrossCallReturnLabel_30:
        RCALL   ?Subroutine26
??CrossCallReturnLabel_160:
        RJMP    ??CrossCallReturnLabel_33
//  554                 break;
//  555 
//  556               case CounterStatisticType_Day:
//  557                 curStatisticRecord->InCnt += MemAT25Driver::counterValue.InCntDay;
??operationStatistic_14:
        RCALL   ?Subroutine58
??CrossCallReturnLabel_90:
        LDD     R16, Z+14
        LDD     R17, Z+15
        RCALL   ?Subroutine21
//  558                 curStatisticRecord->OutCnt += MemAT25Driver::counterValue.OutCntDay;
??CrossCallReturnLabel_29:
        LDD     R16, Z+16
        LDD     R17, Z+17
        RCALL   ?Subroutine22
//  559                 curStatisticRecord->NoSensorSec += MemAT25Driver::counterValue.NoSensorSecDay;
??CrossCallReturnLabel_31:
        RCALL   ?Subroutine24
??CrossCallReturnLabel_33:
        RCALL   ?Subroutine43
//  560                 break;
??CrossCallReturnLabel_63:
        RJMP    ??CrossCallReturnLabel_155
//  561 
//  562               case CounterStatisticType_Month:
//  563                 curStatisticRecord->InCnt += MemAT25Driver::counterValue.InCntMonth;
??operationStatistic_15:
        RCALL   ?Subroutine58
??CrossCallReturnLabel_91:
        RCALL   ?Subroutine62
??CrossCallReturnLabel_100:
        ADIW    R27:R26, 12
        RCALL   ?Subroutine96
??CrossCallReturnLabel_169:
        RCALL   ?Subroutine77
??CrossCallReturnLabel_120:
        RCALL   ?Subroutine94
??CrossCallReturnLabel_162:
        SBIW    R27:R26, 12
//  564                 curStatisticRecord->OutCnt += MemAT25Driver::counterValue.OutCntMonth;
        RCALL   ?Subroutine23
//  565                 break;
//  566             }
//  567 
//  568             curStatisticRecord->curPeriodNum++;
??CrossCallReturnLabel_155:
        RCALL   ?Subroutine60
??CrossCallReturnLabel_213:
        ADIW    R27:R26, 8
        RCALL   ?Subroutine79
??CrossCallReturnLabel_125:
        RCALL   ?Subroutine63
??CrossCallReturnLabel_102:
        ST      X, R19
        ST      -X, R18
        ST      -X, R17
        ST      -X, R16
//  569             scheduleCounterOperation(CounterStatus_GetStatistic, counterSubStatusSet);
        LDI     R16, 3
        STD     Z+43, R16
        LDI     R16, 0
        STD     Z+45, R16
        STD     Z+46, R16
//  570           }
        RJMP    ??operationStatistic_7
//  571           else
//  572           {
//  573             retryOperation();
??operationStatistic_12:
        RCALL   ??retryOperation
//  574 
//  575             if (counterStatus == CounterStatus_Normal)
        LDS     R16, (??curPeriod + 43)
        TST     R16
        BRNE    ??operationStatistic_7
//  576             {
//  577               curStatisticRecord->status = CounterStatisticProcessStatus_Error;
        LDI     R16, 3
//  578             }
//  579           }
//  580         }
//  581       }
??operationStatistic_3:
        RCALL   ?Subroutine60
??CrossCallReturnLabel_214:
        ADIW    R27:R26, 24
        ST      X, R16
//  582     }
??operationStatistic_7:
        RJMP    ?Subroutine91
          CFI EndBlock cfiBlock292

        RSEG CODE:CODE:NOROOT(1)
?Subroutine63:
          CFI Block cfiCond293 Using cfiCommon0
          CFI Function ??operationStatistic
          CFI Conditional ??CrossCallReturnLabel_101
          CFI R24 Frame(CFA_Y, -4)
          CFI R25 Frame(CFA_Y, -3)
          CFI R26 Frame(CFA_Y, -2)
          CFI R27 Frame(CFA_Y, -1)
          CFI CFA_SP SP+4
          CFI CFA_Y Y+4
          CFI Block cfiCond294 Using cfiCommon0
          CFI (cfiCond294) Function ??operationStatistic
          CFI (cfiCond294) Conditional ??CrossCallReturnLabel_102
          CFI (cfiCond294) R24 Frame(CFA_Y, -4)
          CFI (cfiCond294) R25 Frame(CFA_Y, -3)
          CFI (cfiCond294) R26 Frame(CFA_Y, -2)
          CFI (cfiCond294) R27 Frame(CFA_Y, -1)
          CFI (cfiCond294) CFA_SP SP+4
          CFI (cfiCond294) CFA_Y Y+4
          CFI Block cfiPicker295 Using cfiCommon1
          CFI (cfiPicker295) NoFunction
          CFI (cfiPicker295) Picker
        SUBI    R16, 255
        RJMP    ?Subroutine76
          CFI EndBlock cfiCond293
          CFI EndBlock cfiCond294
          CFI EndBlock cfiPicker295

        RSEG CODE:CODE:NOROOT(1)
?Subroutine62:
          CFI Block cfiCond296 Using cfiCommon0
          CFI Function ??operationStatistic
          CFI Conditional ??CrossCallReturnLabel_99
          CFI R24 Frame(CFA_Y, -4)
          CFI R25 Frame(CFA_Y, -3)
          CFI R26 Frame(CFA_Y, -2)
          CFI R27 Frame(CFA_Y, -1)
          CFI CFA_SP SP+4
          CFI CFA_Y Y+4
          CFI Block cfiCond297 Using cfiCommon0
          CFI (cfiCond297) Function ??operationStatistic
          CFI (cfiCond297) Conditional ??CrossCallReturnLabel_100
          CFI (cfiCond297) R24 Frame(CFA_Y, -4)
          CFI (cfiCond297) R25 Frame(CFA_Y, -3)
          CFI (cfiCond297) R26 Frame(CFA_Y, -2)
          CFI (cfiCond297) R27 Frame(CFA_Y, -1)
          CFI (cfiCond297) CFA_SP SP+4
          CFI (cfiCond297) CFA_Y Y+4
          CFI Block cfiPicker298 Using cfiCommon1
          CFI (cfiPicker298) NoFunction
          CFI (cfiPicker298) Picker
        LDD     R16, Z+24
        LDD     R17, Z+25
        LDD     R18, Z+26
        LDD     R19, Z+27
        RET
          CFI EndBlock cfiCond296
          CFI EndBlock cfiCond297
          CFI EndBlock cfiPicker298

        RSEG CODE:CODE:NOROOT(1)
?Subroutine61:
          CFI Block cfiCond299 Using cfiCommon0
          CFI Function ??operationLoadSave
          CFI Conditional ??CrossCallReturnLabel_97
          CFI R24 Frame(CFA_Y, -4)
          CFI R25 Frame(CFA_Y, -3)
          CFI R26 Frame(CFA_Y, -2)
          CFI R27 Frame(CFA_Y, -1)
          CFI CFA_SP SP+4
          CFI CFA_Y Y+4
          CFI Block cfiCond300 Using cfiCommon0
          CFI (cfiCond300) Function ??operationStatistic
          CFI (cfiCond300) Conditional ??CrossCallReturnLabel_98
          CFI (cfiCond300) R24 Frame(CFA_Y, -4)
